---
triple:          'arm64-apple-darwin'
binary-path:     '/Users/igorlukianov/Desktop/Programming/VS Code/c++/Project for uni/DSBA-CPP-2024-Project-1/DSBA-CPP-2024-Project/DSBA-CPP-2024-Project/code/main'
relocations:
  - { offsetInCU: 0x6A, offset: 0x6A, size: 0x8, addend: 0x0, symName: _datafile1, symObjAddr: 0x65908, symBinAddr: 0x100014008, symSize: 0x0 }
  - { offsetInCU: 0x4D45, offset: 0x4D45, size: 0x8, addend: 0x0, symName: __ZNSt3__17advanceB7v160006IPdmmvEEvRT_T0_, symObjAddr: 0x35E4, symBinAddr: 0x100004AF4, symSize: 0x50 }
  - { offsetInCU: 0xA0FC, offset: 0xA0FC, size: 0x8, addend: 0x0, symName: __ZNSt3__124__put_character_sequenceB7v160006IcNS_11char_traitsIcEEEERNS_13basic_ostreamIT_T0_EES7_PKS4_m, symObjAddr: 0xCAA8, symBinAddr: 0x10000DFB8, symSize: 0x1EC }
  - { offsetInCU: 0xCA61, offset: 0xCA61, size: 0x8, addend: 0x0, symName: __ZNSt3__17getlineB7v160006IcNS_11char_traitsIcEENS_9allocatorIcEEEERNS_13basic_istreamIT_T0_EES9_RNS_12basic_stringIS6_S7_T1_EE, symObjAddr: 0x560, symBinAddr: 0x100001A70, symSize: 0x5C }
  - { offsetInCU: 0xCEA9, offset: 0xCEA9, size: 0x8, addend: 0x0, symName: __ZNSt3__17getlineB7v160006IcNS_11char_traitsIcEENS_9allocatorIcEEEERNS_13basic_istreamIT_T0_EES9_RNS_12basic_stringIS6_S7_T1_EES6_, symObjAddr: 0x724, symBinAddr: 0x100001C34, symSize: 0x238 }
  - { offsetInCU: 0xD062, offset: 0xD062, size: 0x8, addend: 0x0, symName: __ZNSt3__1neB7v160006IP5pointEEbRKNS_11__wrap_iterIT_EES7_, symObjAddr: 0x11E8, symBinAddr: 0x1000026F8, symSize: 0x34 }
  - { offsetInCU: 0xD4B0, offset: 0xD4B0, size: 0x8, addend: 0x0, symName: __ZNSt3__1neB7v160006IPK5pointEEbRKNS_11__wrap_iterIT_EES8_, symObjAddr: 0x1734, symBinAddr: 0x100002C44, symSize: 0x34 }
  - { offsetInCU: 0xD65E, offset: 0xD65E, size: 0x8, addend: 0x0, symName: __ZNSt3__1lsB7v160006IcNS_11char_traitsIcEENS_9allocatorIcEEEERNS_13basic_ostreamIT_T0_EES9_RKNS_12basic_stringIS6_S7_T1_EE, symObjAddr: 0x22C4, symBinAddr: 0x1000037D4, symSize: 0x4C }
  - { offsetInCU: 0xD6B6, offset: 0xD6B6, size: 0x8, addend: 0x0, symName: __ZNSt3__1lsB7v160006INS_11char_traitsIcEEEERNS_13basic_ostreamIcT_EES6_PKc, symObjAddr: 0x2310, symBinAddr: 0x100003820, symSize: 0x48 }
  - { offsetInCU: 0xD6FC, offset: 0xD6FC, size: 0x8, addend: 0x0, symName: __ZNSt3__14endlB7v160006IcNS_11char_traitsIcEEEERNS_13basic_ostreamIT_T0_EES7_, symObjAddr: 0x2384, symBinAddr: 0x100003894, symSize: 0x58 }
  - { offsetInCU: 0xD747, offset: 0xD747, size: 0x8, addend: 0x0, symName: __ZNSt3__14findB7v160006INS_11__wrap_iterIPK5pointEES2_EET_S6_S6_RKT0_, symObjAddr: 0x2C64, symBinAddr: 0x100004174, symSize: 0x74 }
  - { offsetInCU: 0xD7A1, offset: 0xD7A1, size: 0x8, addend: 0x0, symName: __ZNSt3__13maxB7v160006IdEERKT_S3_S3_, symObjAddr: 0x2D0C, symBinAddr: 0x10000421C, symSize: 0x2C }
  - { offsetInCU: 0xD7E4, offset: 0xD7E4, size: 0x8, addend: 0x0, symName: __ZNSt3__1neB7v160006IPdEEbRKNS_11__wrap_iterIT_EES6_, symObjAddr: 0x2D98, symBinAddr: 0x1000042A8, symSize: 0x34 }
  - { offsetInCU: 0xD827, offset: 0xD827, size: 0x8, addend: 0x0, symName: __ZNSt3__1eqB7v160006IP5pointEEbRKNS_11__wrap_iterIT_EES7_, symObjAddr: 0x3288, symBinAddr: 0x100004798, symSize: 0x48 }
  - { offsetInCU: 0xD86A, offset: 0xD86A, size: 0x8, addend: 0x0, symName: __ZNSt3__1eqB7v160006IPK5pointEEbRKNS_11__wrap_iterIT_EES8_, symObjAddr: 0x32F4, symBinAddr: 0x100004804, symSize: 0x48 }
  - { offsetInCU: 0xD8AD, offset: 0xD8AD, size: 0x8, addend: 0x0, symName: __ZNSt3__18distanceB7v160006IPdEENS_15iterator_traitsIT_E15difference_typeES3_S3_, symObjAddr: 0x3578, symBinAddr: 0x100004A88, symSize: 0x2C }
  - { offsetInCU: 0xD8F0, offset: 0xD8F0, size: 0x8, addend: 0x0, symName: __ZNSt3__14copyB7v160006IPdS1_EET0_T_S3_S2_, symObjAddr: 0x3634, symBinAddr: 0x100004B44, symSize: 0x40 }
  - { offsetInCU: 0xD94A, offset: 0xD94A, size: 0x8, addend: 0x0, symName: __ZNSt3__125__debug_db_invalidate_allB7v160006INS_6vectorIdNS_9allocatorIdEEEEEEvPT_, symObjAddr: 0x394C, symBinAddr: 0x100004E5C, symSize: 0x10 }
  - { offsetInCU: 0xD97B, offset: 0xD97B, size: 0x8, addend: 0x0, symName: __ZNSt3__110__distanceB7v160006IPdEENS_15iterator_traitsIT_E15difference_typeES3_S3_NS_26random_access_iterator_tagE, symObjAddr: 0x395C, symBinAddr: 0x100004E6C, symSize: 0x28 }
  - { offsetInCU: 0xD9C8, offset: 0xD9C8, size: 0x8, addend: 0x0, symName: __ZNSt3__121__convert_to_integralB7v160006Em, symObjAddr: 0x39E4, symBinAddr: 0x100004EF4, symSize: 0x14 }
  - { offsetInCU: 0xD9F4, offset: 0xD9F4, size: 0x8, addend: 0x0, symName: __ZNSt3__19__advanceB7v160006IPdEEvRT_NS_15iterator_traitsIS2_E15difference_typeENS_26random_access_iterator_tagE, symObjAddr: 0x39F8, symBinAddr: 0x100004F08, symSize: 0x28 }
  - { offsetInCU: 0xDA3D, offset: 0xDA3D, size: 0x8, addend: 0x0, symName: __ZNSt3__16__copyB7v160006INS_17_ClassicAlgPolicyEPdS2_S2_EENS_4pairIT0_T2_EES4_T1_S5_, symObjAddr: 0x3A20, symBinAddr: 0x100004F30, symSize: 0x44 }
  - { offsetInCU: 0xDAA9, offset: 0xDAA9, size: 0x8, addend: 0x0, symName: __ZNSt3__123__dispatch_copy_or_moveB7v160006INS_17_ClassicAlgPolicyENS_11__copy_loopIS1_EENS_14__copy_trivialEPdS5_S5_EENS_4pairIT2_T4_EES7_T3_S8_, symObjAddr: 0x3A64, symBinAddr: 0x100004F74, symSize: 0x44 }
  - { offsetInCU: 0xDB27, offset: 0xDB27, size: 0x8, addend: 0x0, symName: __ZNSt3__121__unwrap_and_dispatchB7v160006INS_10__overloadINS_11__copy_loopINS_17_ClassicAlgPolicyEEENS_14__copy_trivialEEEPdS7_S7_Li0EEENS_4pairIT0_T2_EES9_T1_SA_, symObjAddr: 0x3AA8, symBinAddr: 0x100004FB8, symSize: 0xB4 }
  - { offsetInCU: 0xDBB5, offset: 0xDBB5, size: 0x8, addend: 0x0, symName: __ZNSt3__114__unwrap_rangeB7v160006IPdS1_EENS_4pairIT0_S3_EET_S5_, symObjAddr: 0x3B5C, symBinAddr: 0x10000506C, symSize: 0x60 }
  - { offsetInCU: 0xDD4A, offset: 0xDD4A, size: 0x8, addend: 0x0, symName: __ZNSt3__113__unwrap_iterB7v160006IPdNS_18__unwrap_iter_implIS1_Lb1EEELi0EEEDTclsrT0_8__unwrapclsr3stdE7declvalIT_EEEES5_, symObjAddr: 0x3C04, symBinAddr: 0x100005114, symSize: 0x24 }
  - { offsetInCU: 0xDD8E, offset: 0xDD8E, size: 0x8, addend: 0x0, symName: __ZNSt3__19make_pairB7v160006IPdS1_EENS_4pairINS_18__unwrap_ref_decayIT_E4typeENS3_IT0_E4typeEEEOS4_OS7_, symObjAddr: 0x3C28, symBinAddr: 0x100005138, symSize: 0x38 }
  - { offsetInCU: 0xDDDD, offset: 0xDDDD, size: 0x8, addend: 0x0, symName: __ZNSt3__114__rewrap_rangeB7v160006IPdS1_EET_S2_T0_, symObjAddr: 0x3C60, symBinAddr: 0x100005170, symSize: 0x2C }
  - { offsetInCU: 0xDE29, offset: 0xDE29, size: 0x8, addend: 0x0, symName: __ZNSt3__113__rewrap_iterB7v160006IPdS1_NS_18__unwrap_iter_implIS1_Lb1EEEEET_S4_T0_, symObjAddr: 0x3C8C, symBinAddr: 0x10000519C, symSize: 0x3C }
  - { offsetInCU: 0xDE7E, offset: 0xDE7E, size: 0x8, addend: 0x0, symName: __ZNSt3__119__copy_trivial_implB7v160006IddEENS_4pairIPT_PT0_EES3_S3_S5_, symObjAddr: 0x3CC8, symBinAddr: 0x1000051D8, symSize: 0x84 }
  - { offsetInCU: 0xDEE6, offset: 0xDEE6, size: 0x8, addend: 0x0, symName: __ZNSt3__19make_pairB7v160006IRPdS1_EENS_4pairINS_18__unwrap_ref_decayIT_E4typeENS4_IT0_E4typeEEEOS5_OS8_, symObjAddr: 0x3D4C, symBinAddr: 0x10000525C, symSize: 0x38 }
  - { offsetInCU: 0xDF88, offset: 0xDF88, size: 0x8, addend: 0x0, symName: __ZNSt3__112__to_addressB7v160006IdEEPT_S2_, symObjAddr: 0x3E18, symBinAddr: 0x100005328, symSize: 0x14 }
  - { offsetInCU: 0xDFBD, offset: 0xDFBD, size: 0x8, addend: 0x0, symName: __ZNSt3__130__uninitialized_allocator_copyB7v160006INS_9allocatorIdEEPdS3_S3_EET2_RT_T0_T1_S4_, symObjAddr: 0x3F34, symBinAddr: 0x100005444, symSize: 0xF4 }
  - { offsetInCU: 0xE05B, offset: 0xE05B, size: 0x8, addend: 0x0, symName: __ZNSt3__122__make_exception_guardB7v160006INS_29_AllocatorDestroyRangeReverseINS_9allocatorIdEEPdEEEENS_28__exception_guard_exceptionsIT_EES7_, symObjAddr: 0x40C0, symBinAddr: 0x1000055D0, symSize: 0x4C }
  - { offsetInCU: 0xE091, offset: 0xE091, size: 0x8, addend: 0x0, symName: __ZNSt3__119__allocator_destroyB7v160006INS_9allocatorIdEENS_16reverse_iteratorIPdEES5_EEvRT_T0_T1_, symObjAddr: 0x4348, symBinAddr: 0x100005858, symSize: 0x70 }
  - { offsetInCU: 0xE0F4, offset: 0xE0F4, size: 0x8, addend: 0x0, symName: __ZNSt3__1neB7v160006IPdS1_EEbRKNS_16reverse_iteratorIT_EERKNS2_IT0_EE, symObjAddr: 0x43EC, symBinAddr: 0x1000058FC, symSize: 0x48 }
  - { offsetInCU: 0xE140, offset: 0xE140, size: 0x8, addend: 0x0, symName: __ZNSt3__112__to_addressB7v160006INS_16reverse_iteratorIPdEEvEENS_5decayIDTclsr19__to_address_helperIT_EE6__callclsr3stdE7declvalIRKS5_EEEEE4typeES7_, symObjAddr: 0x4460, symBinAddr: 0x100005970, symSize: 0x24 }
  - { offsetInCU: 0xE19F, offset: 0xE19F, size: 0x8, addend: 0x0, symName: __ZNSt3__119__libcpp_deallocateB7v160006EPvmm, symObjAddr: 0x4888, symBinAddr: 0x100005D98, symSize: 0x30 }
  - { offsetInCU: 0xE1E7, offset: 0xE1E7, size: 0x8, addend: 0x0, symName: __ZNSt3__127__do_deallocate_handle_sizeB7v160006IJEEEvPvmDpT_, symObjAddr: 0x48B8, symBinAddr: 0x100005DC8, symSize: 0x28 }
  - { offsetInCU: 0xE225, offset: 0xE225, size: 0x8, addend: 0x0, symName: __ZNSt3__124__libcpp_operator_deleteB7v160006IJPvEEEvDpT_, symObjAddr: 0x48E0, symBinAddr: 0x100005DF0, symSize: 0x24 }
  - { offsetInCU: 0xE25A, offset: 0xE25A, size: 0x8, addend: 0x0, symName: __ZNSt3__119__allocate_at_leastB7v160006INS_9allocatorIdEEEENS_19__allocation_resultINS_16allocator_traitsIT_E7pointerEEERS5_m, symObjAddr: 0x49B8, symBinAddr: 0x100005EC8, symSize: 0x40 }
  - { offsetInCU: 0xE29D, offset: 0xE29D, size: 0x8, addend: 0x0, symName: __ZNSt3__13minB7v160006ImEERKT_S3_S3_, symObjAddr: 0x4AA4, symBinAddr: 0x100005FB4, symSize: 0x2C }
  - { offsetInCU: 0xE4E1, offset: 0xE4E1, size: 0x8, addend: 0x0, symName: __ZNSt3__13minB7v160006ImNS_6__lessImmEEEERKT_S5_S5_T0_, symObjAddr: 0x4B30, symBinAddr: 0x100006040, symSize: 0x54 }
  - { offsetInCU: 0xE576, offset: 0xE576, size: 0x8, addend: 0x0, symName: __ZNSt3__120__throw_length_errorB7v160006EPKc, symObjAddr: 0x4C0C, symBinAddr: 0x10000611C, symSize: 0x64 }
  - { offsetInCU: 0xE59E, offset: 0xE59E, size: 0x8, addend: 0x0, symName: __ZNSt3__117__libcpp_allocateB7v160006Emm, symObjAddr: 0x4D7C, symBinAddr: 0x10000628C, symSize: 0x28 }
  - { offsetInCU: 0xE5DB, offset: 0xE5DB, size: 0x8, addend: 0x0, symName: __ZNSt3__121__libcpp_operator_newB7v160006IJmEEEPvDpT_, symObjAddr: 0x4DA4, symBinAddr: 0x1000062B4, symSize: 0x24 }
  - { offsetInCU: 0xE614, offset: 0xE614, size: 0x8, addend: 0x0, symName: __ZNSt3__13maxB7v160006ImEERKT_S3_S3_, symObjAddr: 0x4DC8, symBinAddr: 0x1000062D8, symSize: 0x2C }
  - { offsetInCU: 0xE657, offset: 0xE657, size: 0x8, addend: 0x0, symName: __ZNSt3__13maxB7v160006ImNS_6__lessImmEEEERKT_S5_S5_T0_, symObjAddr: 0x4DF4, symBinAddr: 0x100006304, symSize: 0x54 }
  - { offsetInCU: 0xE6B1, offset: 0xE6B1, size: 0x8, addend: 0x0, symName: __ZNSt3__1eqB7v160006IdNS_9allocatorIdEEEEbRKNS_6vectorIT_T0_EES8_, symObjAddr: 0x4F64, symBinAddr: 0x100006474, symSize: 0x9C }
  - { offsetInCU: 0xE70F, offset: 0xE70F, size: 0x8, addend: 0x0, symName: __ZNSt3__15equalB7v160006INS_11__wrap_iterIPKdEES4_EEbT_S5_T0_, symObjAddr: 0x5000, symBinAddr: 0x100006510, symSize: 0x50 }
  - { offsetInCU: 0xE769, offset: 0xE769, size: 0x8, addend: 0x0, symName: __ZNSt3__15equalB7v160006INS_11__wrap_iterIPKdEES4_NS_10__equal_toEEEbT_S6_T0_T1_, symObjAddr: 0x50B0, symBinAddr: 0x1000065C0, symSize: 0xB0 }
  - { offsetInCU: 0xE7DA, offset: 0xE7DA, size: 0x8, addend: 0x0, symName: __ZNSt3__1neB7v160006IPKdEEbRKNS_11__wrap_iterIT_EES7_, symObjAddr: 0x5160, symBinAddr: 0x100006670, symSize: 0x34 }
  - { offsetInCU: 0xE858, offset: 0xE858, size: 0x8, addend: 0x0, symName: __ZNSt3__1eqB7v160006IPKdEEbRKNS_11__wrap_iterIT_EES7_, symObjAddr: 0x5200, symBinAddr: 0x100006710, symSize: 0x48 }
  - { offsetInCU: 0xE89B, offset: 0xE89B, size: 0x8, addend: 0x0, symName: __ZNSt3__13maxB7v160006IdNS_6__lessIddEEEERKT_S5_S5_T0_, symObjAddr: 0x52F4, symBinAddr: 0x100006804, symSize: 0x54 }
  - { offsetInCU: 0xE930, offset: 0xE930, size: 0x8, addend: 0x0, symName: __ZNSt3__1eqB7v160006IPdEEbRKNS_11__wrap_iterIT_EES6_, symObjAddr: 0x537C, symBinAddr: 0x10000688C, symSize: 0x48 }
  - { offsetInCU: 0xE973, offset: 0xE973, size: 0x8, addend: 0x0, symName: __ZNSt3__119__debug_db_insert_cB7v160006INS_12basic_stringIcNS_11char_traitsIcEENS_9allocatorIcEEEEEEvPT_, symObjAddr: 0x54AC, symBinAddr: 0x1000069BC, symSize: 0x10 }
  - { offsetInCU: 0xE9A4, offset: 0xE9A4, size: 0x8, addend: 0x0, symName: __ZNSt3__118__constexpr_strlenB7v160006EPKc, symObjAddr: 0x5578, symBinAddr: 0x100006A88, symSize: 0x24 }
  - { offsetInCU: 0xE9D0, offset: 0xE9D0, size: 0x8, addend: 0x0, symName: __ZNSt3__122__make_exception_guardB7v160006INS_6vectorIdNS_9allocatorIdEEE16__destroy_vectorEEENS_28__exception_guard_exceptionsIT_EES7_, symObjAddr: 0x57C4, symBinAddr: 0x100006CD4, symSize: 0x40 }
  - { offsetInCU: 0xEA05, offset: 0xEA05, size: 0x8, addend: 0x0, symName: __ZNSt3__119__debug_db_insert_cB7v160006INS_6vectorIdNS_9allocatorIdEEEEEEvPT_, symObjAddr: 0x5838, symBinAddr: 0x100006D48, symSize: 0x10 }
  - { offsetInCU: 0xEA36, offset: 0xEA36, size: 0x8, addend: 0x0, symName: __ZNSt3__118__debug_db_erase_cB7v160006INS_6vectorIdNS_9allocatorIdEEEEEEvPT_, symObjAddr: 0x5B24, symBinAddr: 0x100007034, symSize: 0x10 }
  - { offsetInCU: 0xEA67, offset: 0xEA67, size: 0x8, addend: 0x0, symName: __ZNSt3__122__make_exception_guardB7v160006INS_6vectorI5pointNS_9allocatorIS2_EEE16__destroy_vectorEEENS_28__exception_guard_exceptionsIT_EES8_, symObjAddr: 0x5D00, symBinAddr: 0x100007210, symSize: 0x40 }
  - { offsetInCU: 0xEA9C, offset: 0xEA9C, size: 0x8, addend: 0x0, symName: __ZNSt3__119__debug_db_insert_cB7v160006INS_6vectorI5pointNS_9allocatorIS2_EEEEEEvPT_, symObjAddr: 0x5D74, symBinAddr: 0x100007284, symSize: 0x10 }
  - { offsetInCU: 0xEACD, offset: 0xEACD, size: 0x8, addend: 0x0, symName: __ZNSt3__119__allocate_at_leastB7v160006INS_9allocatorI5pointEEEENS_19__allocation_resultINS_16allocator_traitsIT_E7pointerEEERS6_m, symObjAddr: 0x60B0, symBinAddr: 0x1000075C0, symSize: 0x40 }
  - { offsetInCU: 0xEB10, offset: 0xEB10, size: 0x8, addend: 0x0, symName: __ZNSt3__112__to_addressB7v160006I5pointEEPT_S3_, symObjAddr: 0x6398, symBinAddr: 0x1000078A8, symSize: 0x14 }
  - { offsetInCU: 0xEB45, offset: 0xEB45, size: 0x8, addend: 0x0, symName: __ZNSt3__130__uninitialized_allocator_copyB7v160006INS_9allocatorI5pointEEPS2_S4_S4_EET2_RT_T0_T1_S5_, symObjAddr: 0x6448, symBinAddr: 0x100007958, symSize: 0xF4 }
  - { offsetInCU: 0xEBE3, offset: 0xEBE3, size: 0x8, addend: 0x0, symName: __ZNSt3__122__make_exception_guardB7v160006INS_29_AllocatorDestroyRangeReverseINS_9allocatorI5pointEEPS3_EEEENS_28__exception_guard_exceptionsIT_EES8_, symObjAddr: 0x65B4, symBinAddr: 0x100007AC4, symSize: 0x4C }
  - { offsetInCU: 0xEC19, offset: 0xEC19, size: 0x8, addend: 0x0, symName: __ZNSt3__119__allocator_destroyB7v160006INS_9allocatorI5pointEENS_16reverse_iteratorIPS2_EES6_EEvRT_T0_T1_, symObjAddr: 0x68B8, symBinAddr: 0x100007DC8, symSize: 0x70 }
  - { offsetInCU: 0xEC7C, offset: 0xEC7C, size: 0x8, addend: 0x0, symName: __ZNSt3__1neB7v160006IP5pointS2_EEbRKNS_16reverse_iteratorIT_EERKNS3_IT0_EE, symObjAddr: 0x695C, symBinAddr: 0x100007E6C, symSize: 0x48 }
  - { offsetInCU: 0xECC8, offset: 0xECC8, size: 0x8, addend: 0x0, symName: __ZNSt3__112__to_addressB7v160006INS_16reverse_iteratorIP5pointEEvEENS_5decayIDTclsr19__to_address_helperIT_EE6__callclsr3stdE7declvalIRKS6_EEEEE4typeES8_, symObjAddr: 0x69D0, symBinAddr: 0x100007EE0, symSize: 0x24 }
  - { offsetInCU: 0xED27, offset: 0xED27, size: 0x8, addend: 0x0, symName: __ZNSt3__118__debug_db_erase_cB7v160006INS_6vectorI5pointNS_9allocatorIS2_EEEEEEvPT_, symObjAddr: 0x6CE0, symBinAddr: 0x1000081F0, symSize: 0x10 }
  - { offsetInCU: 0xED58, offset: 0xED58, size: 0x8, addend: 0x0, symName: __ZNSt3__142__uninitialized_allocator_move_if_noexceptB7v160006INS_9allocatorI5pointEENS_16reverse_iteratorIPS2_EES6_S6_EET2_RT_T0_T1_S7_, symObjAddr: 0x74A0, symBinAddr: 0x1000089B0, symSize: 0x11C }
  - { offsetInCU: 0xEDF8, offset: 0xEDF8, size: 0x8, addend: 0x0, symName: __ZNSt3__14swapB7v160006IP5pointEENS_9enable_ifIXaasr21is_move_constructibleIT_EE5valuesr18is_move_assignableIS4_EE5valueEvE4typeERS4_S7_, symObjAddr: 0x75BC, symBinAddr: 0x100008ACC, symSize: 0x3C }
  - { offsetInCU: 0xEE49, offset: 0xEE49, size: 0x8, addend: 0x0, symName: __ZNSt3__125__debug_db_invalidate_allB7v160006INS_6vectorI5pointNS_9allocatorIS2_EEEEEEvPT_, symObjAddr: 0x75F8, symBinAddr: 0x100008B08, symSize: 0x10 }
  - { offsetInCU: 0xEE7A, offset: 0xEE7A, size: 0x8, addend: 0x0, symName: __ZNSt3__122__make_exception_guardB7v160006INS_29_AllocatorDestroyRangeReverseINS_9allocatorI5pointEENS_16reverse_iteratorIPS3_EEEEEENS_28__exception_guard_exceptionsIT_EESA_, symObjAddr: 0x7608, symBinAddr: 0x100008B18, symSize: 0x4C }
  - { offsetInCU: 0xEEB0, offset: 0xEEB0, size: 0x8, addend: 0x0, symName: __ZNSt3__115__debug_db_swapB7v160006INS_6vectorIdNS_9allocatorIdEEEEEEvPT_S6_, symObjAddr: 0x7964, symBinAddr: 0x100008E74, symSize: 0x14 }
  - { offsetInCU: 0xEEEF, offset: 0xEEEF, size: 0x8, addend: 0x0, symName: __ZNSt3__119__allocator_destroyB7v160006INS_9allocatorI5pointEENS_16reverse_iteratorINS4_IPS2_EEEES7_EEvRT_T0_T1_, symObjAddr: 0x7A7C, symBinAddr: 0x100008F8C, symSize: 0x70 }
  - { offsetInCU: 0xEF54, offset: 0xEF54, size: 0x8, addend: 0x0, symName: __ZNSt3__1neB7v160006INS_16reverse_iteratorIP5pointEES4_EEbRKNS1_IT_EERKNS1_IT0_EE, symObjAddr: 0x7B28, symBinAddr: 0x100009038, symSize: 0x60 }
  - { offsetInCU: 0xEFA0, offset: 0xEFA0, size: 0x8, addend: 0x0, symName: __ZNSt3__112__to_addressB7v160006INS_16reverse_iteratorINS1_IP5pointEEEEvEENS_5decayIDTclsr19__to_address_helperIT_EE6__callclsr3stdE7declvalIRKS7_EEEEE4typeES9_, symObjAddr: 0x7B88, symBinAddr: 0x100009098, symSize: 0x24 }
  - { offsetInCU: 0xEFFF, offset: 0xEFFF, size: 0x8, addend: 0x0, symName: __ZNSt3__112__to_addressB7v160006IKcEEPT_S3_, symObjAddr: 0x81D8, symBinAddr: 0x1000096E8, symSize: 0x14 }
  - { offsetInCU: 0xF067, offset: 0xF067, size: 0x8, addend: 0x0, symName: __ZNSt3__19use_facetB7v160006INS_5ctypeIcEEEERKT_RKNS_6localeE, symObjAddr: 0x83CC, symBinAddr: 0x1000098DC, symSize: 0x2C }
  - { offsetInCU: 0xF536, offset: 0xF536, size: 0x8, addend: 0x0, symName: __ZNSt3__125__debug_db_invalidate_allB7v160006INS_12basic_stringIcNS_11char_traitsIcEENS_9allocatorIcEEEEEEvPT_, symObjAddr: 0x8C54, symBinAddr: 0x10000A164, symSize: 0x10 }
  - { offsetInCU: 0xF79C, offset: 0xF79C, size: 0x8, addend: 0x0, symName: __ZNSt3__142__uninitialized_allocator_move_if_noexceptB7v160006INS_9allocatorIdEENS_16reverse_iteratorIPdEES5_dvEET1_RT_T0_S9_S6_, symObjAddr: 0x9408, symBinAddr: 0x10000A918, symSize: 0x78 }
  - { offsetInCU: 0xF819, offset: 0xF819, size: 0x8, addend: 0x0, symName: __ZNSt3__14swapB7v160006IPdEENS_9enable_ifIXaasr21is_move_constructibleIT_EE5valuesr18is_move_assignableIS3_EE5valueEvE4typeERS3_S6_, symObjAddr: 0x9480, symBinAddr: 0x10000A990, symSize: 0x3C }
  - { offsetInCU: 0xF86A, offset: 0xF86A, size: 0x8, addend: 0x0, symName: __ZNSt3__14moveB7v160006INS_16reverse_iteratorIPdEES3_EET0_T_S5_S4_, symObjAddr: 0x94BC, symBinAddr: 0x10000A9CC, symSize: 0x78 }
  - { offsetInCU: 0xF8C4, offset: 0xF8C4, size: 0x8, addend: 0x0, symName: __ZNSt3__16__moveB7v160006INS_17_ClassicAlgPolicyENS_16reverse_iteratorIPdEES4_S4_EENS_4pairIT0_T2_EES6_T1_S7_, symObjAddr: 0x9534, symBinAddr: 0x10000AA44, symSize: 0x64 }
  - { offsetInCU: 0xF930, offset: 0xF930, size: 0x8, addend: 0x0, symName: __ZNSt3__123__dispatch_copy_or_moveB7v160006INS_17_ClassicAlgPolicyENS_11__move_loopIS1_EENS_14__move_trivialENS_16reverse_iteratorIPdEES7_S7_EENS_4pairIT2_T4_EES9_T3_SA_, symObjAddr: 0x9598, symBinAddr: 0x10000AAA8, symSize: 0x64 }
  - { offsetInCU: 0xF9AE, offset: 0xF9AE, size: 0x8, addend: 0x0, symName: __ZNSt3__121__unwrap_and_dispatchB7v160006INS_10__overloadINS_11__move_loopINS_17_ClassicAlgPolicyEEENS_14__move_trivialEEENS_16reverse_iteratorIPdEES9_S9_Li0EEENS_4pairIT0_T2_EESB_T1_SC_, symObjAddr: 0x95FC, symBinAddr: 0x10000AB0C, symSize: 0x12C }
  - { offsetInCU: 0xFA3E, offset: 0xFA3E, size: 0x8, addend: 0x0, symName: __ZNSt3__114__unwrap_rangeB7v160006INS_16reverse_iteratorIPdEES3_EENS_4pairIT0_S5_EET_S7_, symObjAddr: 0x9728, symBinAddr: 0x10000AC38, symSize: 0x84 }
  - { offsetInCU: 0xFBB9, offset: 0xFBB9, size: 0x8, addend: 0x0, symName: __ZNSt3__113__unwrap_iterB7v160006INS_16reverse_iteratorIPdEENS_18__unwrap_iter_implIS3_Lb0EEELi0EEEDTclsrT0_8__unwrapclsr3stdE7declvalIT_EEEES7_, symObjAddr: 0x984C, symBinAddr: 0x10000AD5C, symSize: 0x44 }
  - { offsetInCU: 0xFBFD, offset: 0xFBFD, size: 0x8, addend: 0x0, symName: __ZNSt3__19make_pairB7v160006INS_16reverse_iteratorIPdEES3_EENS_4pairINS_18__unwrap_ref_decayIT_E4typeENS5_IT0_E4typeEEEOS6_OS9_, symObjAddr: 0x9890, symBinAddr: 0x10000ADA0, symSize: 0x38 }
  - { offsetInCU: 0xFC4C, offset: 0xFC4C, size: 0x8, addend: 0x0, symName: __ZNSt3__114__rewrap_rangeB7v160006INS_16reverse_iteratorIPdEES3_EET_S4_T0_, symObjAddr: 0x98C8, symBinAddr: 0x10000ADD8, symSize: 0x5C }
  - { offsetInCU: 0xFC98, offset: 0xFC98, size: 0x8, addend: 0x0, symName: __ZNSt3__113__rewrap_iterB7v160006INS_16reverse_iteratorIPdEES3_NS_18__unwrap_iter_implIS3_Lb0EEEEET_S6_T0_, symObjAddr: 0x9924, symBinAddr: 0x10000AE34, symSize: 0x74 }
  - { offsetInCU: 0xFDC3, offset: 0xFDC3, size: 0x8, addend: 0x0, symName: __ZNSt3__113__countl_zeroB7v160006IjEEiT_, symObjAddr: 0xA1A4, symBinAddr: 0x10000B6B4, symSize: 0x54 }
  - { offsetInCU: 0xFDF8, offset: 0xFDF8, size: 0x8, addend: 0x0, symName: __ZNSt3__112__libcpp_clzB7v160006Ej, symObjAddr: 0xA63C, symBinAddr: 0x10000BB4C, symSize: 0x18 }
  - { offsetInCU: 0xFE24, offset: 0xFE24, size: 0x8, addend: 0x0, symName: __ZNSt3__120__throw_out_of_rangeB7v160006EPKc, symObjAddr: 0xA678, symBinAddr: 0x10000BB88, symSize: 0x64 }
  - { offsetInCU: 0xFE4E, offset: 0xFE4E, size: 0x8, addend: 0x0, symName: __ZNSt3__122__make_exception_guardB7v160006INS_6vectorIiNS_9allocatorIiEEE16__destroy_vectorEEENS_28__exception_guard_exceptionsIT_EES7_, symObjAddr: 0xAC7C, symBinAddr: 0x10000C18C, symSize: 0x40 }
  - { offsetInCU: 0xFE83, offset: 0xFE83, size: 0x8, addend: 0x0, symName: __ZNSt3__119__debug_db_insert_cB7v160006INS_6vectorIiNS_9allocatorIiEEEEEEvPT_, symObjAddr: 0xACF0, symBinAddr: 0x10000C200, symSize: 0x10 }
  - { offsetInCU: 0xFEB4, offset: 0xFEB4, size: 0x8, addend: 0x0, symName: __ZNSt3__119__allocate_at_leastB7v160006INS_9allocatorIiEEEENS_19__allocation_resultINS_16allocator_traitsIT_E7pointerEEERS5_m, symObjAddr: 0xB080, symBinAddr: 0x10000C590, symSize: 0x40 }
  - { offsetInCU: 0xFEF7, offset: 0xFEF7, size: 0x8, addend: 0x0, symName: __ZNSt3__112__to_addressB7v160006IiEEPT_S2_, symObjAddr: 0xB3A4, symBinAddr: 0x10000C8B4, symSize: 0x14 }
  - { offsetInCU: 0xFF2C, offset: 0xFF2C, size: 0x8, addend: 0x0, symName: __ZNSt3__118__debug_db_erase_cB7v160006INS_6vectorIiNS_9allocatorIiEEEEEEvPT_, symObjAddr: 0xB6E4, symBinAddr: 0x10000CBF4, symSize: 0x10 }
  - { offsetInCU: 0xFF5D, offset: 0xFF5D, size: 0x8, addend: 0x0, symName: __ZNSt3__115__debug_db_swapB7v160006INS_6vectorI5pointNS_9allocatorIS2_EEEEEEvPT_S7_, symObjAddr: 0xBAC0, symBinAddr: 0x10000CFD0, symSize: 0x14 }
  - { offsetInCU: 0xFF9C, offset: 0xFF9C, size: 0x8, addend: 0x0, symName: __ZNSt3__122__make_exception_guardB7v160006INS_6vectorI7clusterNS_9allocatorIS2_EEE16__destroy_vectorEEENS_28__exception_guard_exceptionsIT_EES8_, symObjAddr: 0xBD4C, symBinAddr: 0x10000D25C, symSize: 0x40 }
  - { offsetInCU: 0xFFD1, offset: 0xFFD1, size: 0x8, addend: 0x0, symName: __ZNSt3__119__debug_db_insert_cB7v160006INS_6vectorI7clusterNS_9allocatorIS2_EEEEEEvPT_, symObjAddr: 0xBDC0, symBinAddr: 0x10000D2D0, symSize: 0x10 }
  - { offsetInCU: 0x10002, offset: 0x10002, size: 0x8, addend: 0x0, symName: __ZNSt3__119__allocate_at_leastB7v160006INS_9allocatorI7clusterEEEENS_19__allocation_resultINS_16allocator_traitsIT_E7pointerEEERS6_m, symObjAddr: 0xC158, symBinAddr: 0x10000D668, symSize: 0x40 }
  - { offsetInCU: 0x10045, offset: 0x10045, size: 0x8, addend: 0x0, symName: __ZNSt3__112__to_addressB7v160006I7clusterEEPT_S3_, symObjAddr: 0xC4A0, symBinAddr: 0x10000D9B0, symSize: 0x14 }
  - { offsetInCU: 0x1007A, offset: 0x1007A, size: 0x8, addend: 0x0, symName: __ZNSt3__118__debug_db_erase_cB7v160006INS_6vectorI7clusterNS_9allocatorIS2_EEEEEEvPT_, symObjAddr: 0xC874, symBinAddr: 0x10000DD84, symSize: 0x10 }
  - { offsetInCU: 0x100AB, offset: 0x100AB, size: 0x8, addend: 0x0, symName: __ZNSt3__116__pad_and_outputB7v160006IcNS_11char_traitsIcEEEENS_19ostreambuf_iteratorIT_T0_EES6_PKS4_S8_S8_RNS_8ios_baseES4_, symObjAddr: 0xCCB0, symBinAddr: 0x10000E1C0, symSize: 0x240 }
  - { offsetInCU: 0x107AA, offset: 0x107AA, size: 0x8, addend: 0x0, symName: __ZSt28__throw_bad_array_new_lengthB7v160006v, symObjAddr: 0x4D48, symBinAddr: 0x100006258, symSize: 0x34 }
  - { offsetInCU: 0x10994, offset: 0x10994, size: 0x8, addend: 0x0, symName: _datafile2, symObjAddr: 0x65920, symBinAddr: 0x100014020, symSize: 0x0 }
  - { offsetInCU: 0x109A9, offset: 0x109A9, size: 0x8, addend: 0x0, symName: _pointfile1, symObjAddr: 0x65938, symBinAddr: 0x100014038, symSize: 0x0 }
  - { offsetInCU: 0x109BE, offset: 0x109BE, size: 0x8, addend: 0x0, symName: _pointfile2, symObjAddr: 0x65950, symBinAddr: 0x100014050, symSize: 0x0 }
  - { offsetInCU: 0x109D3, offset: 0x109D3, size: 0x8, addend: 0x0, symName: _clustersfile1, symObjAddr: 0x65968, symBinAddr: 0x100014068, symSize: 0x0 }
  - { offsetInCU: 0x109E8, offset: 0x109E8, size: 0x8, addend: 0x0, symName: _siluettesfile1, symObjAddr: 0x65980, symBinAddr: 0x100014080, symSize: 0x0 }
  - { offsetInCU: 0x109FD, offset: 0x109FD, size: 0x8, addend: 0x0, symName: _clustersfile2, symObjAddr: 0x65998, symBinAddr: 0x100014098, symSize: 0x0 }
  - { offsetInCU: 0x10A12, offset: 0x10A12, size: 0x8, addend: 0x0, symName: _siluettesfile2, symObjAddr: 0x659B0, symBinAddr: 0x1000140B0, symSize: 0x0 }
  - { offsetInCU: 0x10A27, offset: 0x10A27, size: 0x8, addend: 0x0, symName: _EPS, symObjAddr: 0xDBE8, symBinAddr: 0x100014000, symSize: 0x0 }
  - { offsetInCU: 0x110CE, offset: 0x110CE, size: 0x8, addend: 0x0, symName: __ZNSt3__16vectorI5pointNS_9allocatorIS1_EEE26__swap_out_circular_bufferERNS_14__split_bufferIS1_RS3_EE, symObjAddr: 0x7124, symBinAddr: 0x100008634, symSize: 0x118 }
  - { offsetInCU: 0x11186, offset: 0x11186, size: 0x8, addend: 0x0, symName: __ZNSt3__16vectorIdNS_9allocatorIdEEE26__swap_out_circular_bufferERNS_14__split_bufferIdRS2_EE, symObjAddr: 0x9098, symBinAddr: 0x10000A5A8, symSize: 0x118 }
  - { offsetInCU: 0x11215, offset: 0x11215, size: 0x8, addend: 0x0, symName: __ZNSt3__124uniform_int_distributionIiEclINS_23mersenne_twister_engineIjLm32ELm624ELm397ELm31ELj2567483615ELm11ELj4294967295ELm7ELj2636928640ELm15ELj4022730752ELm18ELj1812433253EEEEEiRT_RKNS1_10param_typeE, symObjAddr: 0x9F8C, symBinAddr: 0x10000B49C, symSize: 0x188 }
  - { offsetInCU: 0x1383D, offset: 0x1383D, size: 0x8, addend: 0x0, symName: __Z4distRK5pointS1_, symObjAddr: 0x0, symBinAddr: 0x100001510, symSize: 0xC0 }
  - { offsetInCU: 0x138C0, offset: 0x138C0, size: 0x8, addend: 0x0, symName: __ZNK5point14GetCoordinatesEv, symObjAddr: 0xC0, symBinAddr: 0x1000015D0, symSize: 0x14 }
  - { offsetInCU: 0x138E6, offset: 0x138E6, size: 0x8, addend: 0x0, symName: __ZNKSt3__16vectorIdNS_9allocatorIdEEE4sizeB7v160006Ev, symObjAddr: 0xD4, symBinAddr: 0x1000015E4, symSize: 0x28 }
  - { offsetInCU: 0x1390C, offset: 0x1390C, size: 0x8, addend: 0x0, symName: __ZNKSt3__16vectorIdNS_9allocatorIdEEEixB7v160006Em, symObjAddr: 0xFC, symBinAddr: 0x10000160C, symSize: 0x24 }
  - { offsetInCU: 0x13942, offset: 0x13942, size: 0x8, addend: 0x0, symName: __Z9read_dataRKNSt3__112basic_stringIcNS_11char_traitsIcEENS_9allocatorIcEEEE, symObjAddr: 0x120, symBinAddr: 0x100001630, symSize: 0x27C }
  - { offsetInCU: 0x139EF, offset: 0x139EF, size: 0x8, addend: 0x0, symName: __ZNSt3__16vectorI5pointNS_9allocatorIS1_EEEC1B7v160006Ev, symObjAddr: 0x39C, symBinAddr: 0x1000018AC, symSize: 0x2C }
  - { offsetInCU: 0x13B32, offset: 0x13B32, size: 0x8, addend: 0x0, symName: __ZNSt3__114basic_ifstreamIcNS_11char_traitsIcEEEC1ERKNS_12basic_stringIcS2_NS_9allocatorIcEEEEj, symObjAddr: 0x3C8, symBinAddr: 0x1000018D8, symSize: 0x16C }
  - { offsetInCU: 0x13B7C, offset: 0x13B7C, size: 0x8, addend: 0x0, symName: __ZNSt3__112basic_stringIcNS_11char_traitsIcEENS_9allocatorIcEEEC1B7v160006Ev, symObjAddr: 0x534, symBinAddr: 0x100001A44, symSize: 0x2C }
  - { offsetInCU: 0x13BA6, offset: 0x13BA6, size: 0x8, addend: 0x0, symName: __ZNKSt3__19basic_iosIcNS_11char_traitsIcEEEcvbB7v160006Ev, symObjAddr: 0x5BC, symBinAddr: 0x100001ACC, symSize: 0x2C }
  - { offsetInCU: 0x13C2B, offset: 0x13C2B, size: 0x8, addend: 0x0, symName: __ZNSt3__118basic_stringstreamIcNS_11char_traitsIcEENS_9allocatorIcEEEC1B7v160006ERKNS_12basic_stringIcS2_S4_EEj, symObjAddr: 0x5E8, symBinAddr: 0x100001AF8, symSize: 0x110 }
  - { offsetInCU: 0x13C73, offset: 0x13C73, size: 0x8, addend: 0x0, symName: __ZNSt3__16vectorIdNS_9allocatorIdEEEC1B7v160006Ev, symObjAddr: 0x6F8, symBinAddr: 0x100001C08, symSize: 0x2C }
  - { offsetInCU: 0x13C9D, offset: 0x13C9D, size: 0x8, addend: 0x0, symName: __ZNSt3__16vectorIdNS_9allocatorIdEEE9push_backB7v160006ERKd, symObjAddr: 0x95C, symBinAddr: 0x100001E6C, symSize: 0x6C }
  - { offsetInCU: 0x13CD4, offset: 0x13CD4, size: 0x8, addend: 0x0, symName: __ZNSt3__16vectorI5pointNS_9allocatorIS1_EEE9push_backB7v160006EOS1_, symObjAddr: 0x9C8, symBinAddr: 0x100001ED8, symSize: 0x6C }
  - { offsetInCU: 0x13D0B, offset: 0x13D0B, size: 0x8, addend: 0x0, symName: __ZN5pointC1ERKNSt3__16vectorIdNS0_9allocatorIdEEEE, symObjAddr: 0xA34, symBinAddr: 0x100001F44, symSize: 0x34 }
  - { offsetInCU: 0x13D43, offset: 0x13D43, size: 0x8, addend: 0x0, symName: __ZN5pointD1Ev, symObjAddr: 0xA68, symBinAddr: 0x100001F78, symSize: 0x2C }
  - { offsetInCU: 0x13D6F, offset: 0x13D6F, size: 0x8, addend: 0x0, symName: __ZNSt3__16vectorIdNS_9allocatorIdEEED1B7v160006Ev, symObjAddr: 0xA94, symBinAddr: 0x100001FA4, symSize: 0x2C }
  - { offsetInCU: 0x13D9E, offset: 0x13D9E, size: 0x8, addend: 0x0, symName: __ZNSt3__118basic_stringstreamIcNS_11char_traitsIcEENS_9allocatorIcEEED1Ev, symObjAddr: 0xAC0, symBinAddr: 0x100001FD0, symSize: 0x40 }
  - { offsetInCU: 0x13DD0, offset: 0x13DD0, size: 0x8, addend: 0x0, symName: __ZNSt3__114basic_ifstreamIcNS_11char_traitsIcEEED1Ev, symObjAddr: 0xB00, symBinAddr: 0x100002010, symSize: 0x40 }
  - { offsetInCU: 0x13DFD, offset: 0x13DFD, size: 0x8, addend: 0x0, symName: __ZNSt3__16vectorI5pointNS_9allocatorIS1_EEED1B7v160006Ev, symObjAddr: 0xB40, symBinAddr: 0x100002050, symSize: 0x2C }
  - { offsetInCU: 0x13E26, offset: 0x13E26, size: 0x8, addend: 0x0, symName: __Z4costRNSt3__16vectorI5pointNS_9allocatorIS1_EEEES4_, symObjAddr: 0xB6C, symBinAddr: 0x10000207C, symSize: 0xC0 }
  - { offsetInCU: 0x13E8D, offset: 0x13E8D, size: 0x8, addend: 0x0, symName: __ZNKSt3__16vectorI5pointNS_9allocatorIS1_EEE4sizeB7v160006Ev, symObjAddr: 0xC2C, symBinAddr: 0x10000213C, symSize: 0x28 }
  - { offsetInCU: 0x13EB3, offset: 0x13EB3, size: 0x8, addend: 0x0, symName: __ZNSt3__16vectorI5pointNS_9allocatorIS1_EEEixB7v160006Em, symObjAddr: 0xC54, symBinAddr: 0x100002164, symSize: 0x2C }
  - { offsetInCU: 0x13EEA, offset: 0x13EEA, size: 0x8, addend: 0x0, symName: __ZNK5point10GetClusterEv, symObjAddr: 0xC80, symBinAddr: 0x100002190, symSize: 0x18 }
  - { offsetInCU: 0x13F0F, offset: 0x13F0F, size: 0x8, addend: 0x0, symName: __Z20select_random_pointsRKNSt3__16vectorI5pointNS_9allocatorIS1_EEEEi, symObjAddr: 0xC98, symBinAddr: 0x1000021A8, symSize: 0x1BC }
  - { offsetInCU: 0x13FB9, offset: 0x13FB9, size: 0x8, addend: 0x0, symName: __ZNSt3__113random_deviceC1Ev, symObjAddr: 0xE54, symBinAddr: 0x100002364, symSize: 0x74 }
  - { offsetInCU: 0x13FE3, offset: 0x13FE3, size: 0x8, addend: 0x0, symName: __ZNSt3__123mersenne_twister_engineIjLm32ELm624ELm397ELm31ELj2567483615ELm11ELj4294967295ELm7ELj2636928640ELm15ELj4022730752ELm18ELj1812433253EEC1B7v160006Ej, symObjAddr: 0xEC8, symBinAddr: 0x1000023D8, symSize: 0x34 }
  - { offsetInCU: 0x1401B, offset: 0x1401B, size: 0x8, addend: 0x0, symName: __ZNSt3__124uniform_int_distributionIiEC1Eii, symObjAddr: 0xEFC, symBinAddr: 0x10000240C, symSize: 0x3C }
  - { offsetInCU: 0x14061, offset: 0x14061, size: 0x8, addend: 0x0, symName: __ZNSt3__16vectorI5pointNS_9allocatorIS1_EEE9push_backB7v160006ERKS1_, symObjAddr: 0xF38, symBinAddr: 0x100002448, symSize: 0x6C }
  - { offsetInCU: 0x14098, offset: 0x14098, size: 0x8, addend: 0x0, symName: __ZNKSt3__16vectorI5pointNS_9allocatorIS1_EEE2atEm, symObjAddr: 0xFA4, symBinAddr: 0x1000024B4, symSize: 0x68 }
  - { offsetInCU: 0x140CF, offset: 0x140CF, size: 0x8, addend: 0x0, symName: __ZNSt3__124uniform_int_distributionIiEclINS_23mersenne_twister_engineIjLm32ELm624ELm397ELm31ELj2567483615ELm11ELj4294967295ELm7ELj2636928640ELm15ELj4022730752ELm18ELj1812433253EEEEEiRT_, symObjAddr: 0x100C, symBinAddr: 0x10000251C, symSize: 0x30 }
  - { offsetInCU: 0x1410C, offset: 0x1410C, size: 0x8, addend: 0x0, symName: __ZN5point10SetClusterEi, symObjAddr: 0x103C, symBinAddr: 0x10000254C, symSize: 0x20 }
  - { offsetInCU: 0x1413F, offset: 0x1413F, size: 0x8, addend: 0x0, symName: __Z25assign_points_to_clustersRNSt3__16vectorI5pointNS_9allocatorIS1_EEEERKS4_, symObjAddr: 0x105C, symBinAddr: 0x10000256C, symSize: 0x12C }
  - { offsetInCU: 0x1422E, offset: 0x1422E, size: 0x8, addend: 0x0, symName: __ZNSt3__16vectorI5pointNS_9allocatorIS1_EEE5beginB7v160006Ev, symObjAddr: 0x1188, symBinAddr: 0x100002698, symSize: 0x30 }
  - { offsetInCU: 0x14256, offset: 0x14256, size: 0x8, addend: 0x0, symName: __ZNSt3__16vectorI5pointNS_9allocatorIS1_EEE3endB7v160006Ev, symObjAddr: 0x11B8, symBinAddr: 0x1000026C8, symSize: 0x30 }
  - { offsetInCU: 0x1427E, offset: 0x1427E, size: 0x8, addend: 0x0, symName: __ZNKSt3__111__wrap_iterIP5pointEdeB7v160006Ev, symObjAddr: 0x121C, symBinAddr: 0x10000272C, symSize: 0x18 }
  - { offsetInCU: 0x142A4, offset: 0x142A4, size: 0x8, addend: 0x0, symName: __ZNSt3__114numeric_limitsIdE3maxB7v160006Ev, symObjAddr: 0x1234, symBinAddr: 0x100002744, symSize: 0x14 }
  - { offsetInCU: 0x142B8, offset: 0x142B8, size: 0x8, addend: 0x0, symName: __ZNKSt3__16vectorI5pointNS_9allocatorIS1_EEEixB7v160006Em, symObjAddr: 0x1248, symBinAddr: 0x100002758, symSize: 0x2C }
  - { offsetInCU: 0x142EF, offset: 0x142EF, size: 0x8, addend: 0x0, symName: __ZN5point10SetMinDistEd, symObjAddr: 0x1274, symBinAddr: 0x100002784, symSize: 0x20 }
  - { offsetInCU: 0x14323, offset: 0x14323, size: 0x8, addend: 0x0, symName: __ZNSt3__111__wrap_iterIP5pointEppB7v160006Ev, symObjAddr: 0x1294, symBinAddr: 0x1000027A4, symSize: 0x20 }
  - { offsetInCU: 0x14348, offset: 0x14348, size: 0x8, addend: 0x0, symName: __Z23recalculating_centroidsRKNSt3__16vectorI5pointNS_9allocatorIS1_EEEEi, symObjAddr: 0x12B4, symBinAddr: 0x1000027C4, symSize: 0x36C }
  - { offsetInCU: 0x14477, offset: 0x14477, size: 0x8, addend: 0x0, symName: __ZNSt3__16vectorIdNS_9allocatorIdEEEC1EmRKd, symObjAddr: 0x1620, symBinAddr: 0x100002B30, symSize: 0x3C }
  - { offsetInCU: 0x144C1, offset: 0x144C1, size: 0x8, addend: 0x0, symName: __ZNSt3__16vectorI5pointNS_9allocatorIS1_EEEC1EmRKS1_, symObjAddr: 0x165C, symBinAddr: 0x100002B6C, symSize: 0x3C }
  - { offsetInCU: 0x1450B, offset: 0x1450B, size: 0x8, addend: 0x0, symName: __ZNSt3__16vectorIiNS_9allocatorIiEEEC1EmRKi, symObjAddr: 0x1698, symBinAddr: 0x100002BA8, symSize: 0x3C }
  - { offsetInCU: 0x14555, offset: 0x14555, size: 0x8, addend: 0x0, symName: __ZNKSt3__16vectorI5pointNS_9allocatorIS1_EEE5beginB7v160006Ev, symObjAddr: 0x16D4, symBinAddr: 0x100002BE4, symSize: 0x30 }
  - { offsetInCU: 0x1457D, offset: 0x1457D, size: 0x8, addend: 0x0, symName: __ZNKSt3__16vectorI5pointNS_9allocatorIS1_EEE3endB7v160006Ev, symObjAddr: 0x1704, symBinAddr: 0x100002C14, symSize: 0x30 }
  - { offsetInCU: 0x145A5, offset: 0x145A5, size: 0x8, addend: 0x0, symName: __ZNKSt3__111__wrap_iterIPK5pointEdeB7v160006Ev, symObjAddr: 0x1768, symBinAddr: 0x100002C78, symSize: 0x18 }
  - { offsetInCU: 0x145CB, offset: 0x145CB, size: 0x8, addend: 0x0, symName: __ZNSt3__16vectorIiNS_9allocatorIiEEEixB7v160006Em, symObjAddr: 0x1780, symBinAddr: 0x100002C90, symSize: 0x24 }
  - { offsetInCU: 0x14602, offset: 0x14602, size: 0x8, addend: 0x0, symName: __ZN5point14SetCoordinatesERKNSt3__16vectorIdNS0_9allocatorIdEEEE, symObjAddr: 0x17A4, symBinAddr: 0x100002CB4, symSize: 0x2C }
  - { offsetInCU: 0x14636, offset: 0x14636, size: 0x8, addend: 0x0, symName: __ZNSt3__111__wrap_iterIPK5pointEppB7v160006Ev, symObjAddr: 0x17D0, symBinAddr: 0x100002CE0, symSize: 0x20 }
  - { offsetInCU: 0x1465C, offset: 0x1465C, size: 0x8, addend: 0x0, symName: __ZNSt3__16vectorIdNS_9allocatorIdEEEC1ERKS3_, symObjAddr: 0x17F0, symBinAddr: 0x100002D00, symSize: 0x34 }
  - { offsetInCU: 0x14697, offset: 0x14697, size: 0x8, addend: 0x0, symName: __ZNSt3__16vectorIdNS_9allocatorIdEEEixB7v160006Em, symObjAddr: 0x1824, symBinAddr: 0x100002D34, symSize: 0x24 }
  - { offsetInCU: 0x146CE, offset: 0x146CE, size: 0x8, addend: 0x0, symName: __ZNSt3__16vectorIiNS_9allocatorIiEEED1B7v160006Ev, symObjAddr: 0x1848, symBinAddr: 0x100002D58, symSize: 0x2C }
  - { offsetInCU: 0x146F7, offset: 0x146F7, size: 0x8, addend: 0x0, symName: __Z13clusteringPAMRNSt3__16vectorI5pointNS_9allocatorIS1_EEEE, symObjAddr: 0x1874, symBinAddr: 0x100002D84, symSize: 0x320 }
  - { offsetInCU: 0x1478B, offset: 0x1478B, size: 0x8, addend: 0x0, symName: __ZNSt3__16vectorI5pointNS_9allocatorIS1_EEEaSB7v160006EOS4_, symObjAddr: 0x1B94, symBinAddr: 0x1000030A4, symSize: 0x34 }
  - { offsetInCU: 0x147C2, offset: 0x147C2, size: 0x8, addend: 0x0, symName: __ZNSt3__16vectorI5pointNS_9allocatorIS1_EEEC1ERKS4_, symObjAddr: 0x1BC8, symBinAddr: 0x1000030D8, symSize: 0x34 }
  - { offsetInCU: 0x147FC, offset: 0x147FC, size: 0x8, addend: 0x0, symName: __Z12ClusterMakerRNSt3__16vectorI5pointNS_9allocatorIS1_EEEE, symObjAddr: 0x1BFC, symBinAddr: 0x10000310C, symSize: 0x1AC }
  - { offsetInCU: 0x14868, offset: 0x14868, size: 0x8, addend: 0x0, symName: __ZN7clusterC1ERKNSt3__16vectorI5pointNS0_9allocatorIS2_EEEE, symObjAddr: 0x1DA8, symBinAddr: 0x1000032B8, symSize: 0x34 }
  - { offsetInCU: 0x148A0, offset: 0x148A0, size: 0x8, addend: 0x0, symName: __ZNSt3__16vectorI7clusterNS_9allocatorIS1_EEEC1EmRKS1_, symObjAddr: 0x1DDC, symBinAddr: 0x1000032EC, symSize: 0x3C }
  - { offsetInCU: 0x148EA, offset: 0x148EA, size: 0x8, addend: 0x0, symName: __ZN7clusterD1Ev, symObjAddr: 0x1E18, symBinAddr: 0x100003328, symSize: 0x2C }
  - { offsetInCU: 0x14916, offset: 0x14916, size: 0x8, addend: 0x0, symName: __ZNSt3__16vectorI7clusterNS_9allocatorIS1_EEEixB7v160006Em, symObjAddr: 0x1E44, symBinAddr: 0x100003354, symSize: 0x2C }
  - { offsetInCU: 0x1494D, offset: 0x1494D, size: 0x8, addend: 0x0, symName: __ZN7cluster10pointAdderERK5point, symObjAddr: 0x1E70, symBinAddr: 0x100003380, symSize: 0x2C }
  - { offsetInCU: 0x14981, offset: 0x14981, size: 0x8, addend: 0x0, symName: __ZNSt3__16vectorI7clusterNS_9allocatorIS1_EEED1B7v160006Ev, symObjAddr: 0x1E9C, symBinAddr: 0x1000033AC, symSize: 0x2C }
  - { offsetInCU: 0x149B0, offset: 0x149B0, size: 0x8, addend: 0x0, symName: __ZNSt3__112basic_stringIcNS_11char_traitsIcEENS_9allocatorIcEEEC1B7v160006IDnEEPKc, symObjAddr: 0x1EC8, symBinAddr: 0x1000033D8, symSize: 0x34 }
  - { offsetInCU: 0x149ED, offset: 0x149ED, size: 0x8, addend: 0x0, symName: __Z12write_pointsRKNSt3__112basic_stringIcNS_11char_traitsIcEENS_9allocatorIcEEEERKNS_6vectorI5pointNS3_IS9_EEEE, symObjAddr: 0x1EFC, symBinAddr: 0x10000340C, symSize: 0x234 }
  - { offsetInCU: 0x14AC2, offset: 0x14AC2, size: 0x8, addend: 0x0, symName: __ZNSt3__114basic_ofstreamIcNS_11char_traitsIcEEEC1ERKNS_12basic_stringIcS2_NS_9allocatorIcEEEEj, symObjAddr: 0x2130, symBinAddr: 0x100003640, symSize: 0x16C }
  - { offsetInCU: 0x14B0C, offset: 0x14B0C, size: 0x8, addend: 0x0, symName: __ZNKSt3__19basic_iosIcNS_11char_traitsIcEEEntB7v160006Ev, symObjAddr: 0x229C, symBinAddr: 0x1000037AC, symSize: 0x28 }
  - { offsetInCU: 0x14B32, offset: 0x14B32, size: 0x8, addend: 0x0, symName: __ZNSt3__113basic_ostreamIcNS_11char_traitsIcEEElsB7v160006EPFRS3_S4_E, symObjAddr: 0x2358, symBinAddr: 0x100003868, symSize: 0x2C }
  - { offsetInCU: 0x14B66, offset: 0x14B66, size: 0x8, addend: 0x0, symName: __ZNSt3__114basic_ofstreamIcNS_11char_traitsIcEEE5closeEv, symObjAddr: 0x23DC, symBinAddr: 0x1000038EC, symSize: 0x58 }
  - { offsetInCU: 0x14B93, offset: 0x14B93, size: 0x8, addend: 0x0, symName: __ZNSt3__114basic_ofstreamIcNS_11char_traitsIcEEED1Ev, symObjAddr: 0x2434, symBinAddr: 0x100003944, symSize: 0x40 }
  - { offsetInCU: 0x14BBF, offset: 0x14BBF, size: 0x8, addend: 0x0, symName: __Z14write_clustersNSt3__112basic_stringIcNS_11char_traitsIcEENS_9allocatorIcEEEERNS_6vectorI5pointNS3_IS7_EEEE, symObjAddr: 0x2474, symBinAddr: 0x100003984, symSize: 0x290 }
  - { offsetInCU: 0x14C7C, offset: 0x14C7C, size: 0x8, addend: 0x0, symName: __Z15write_siluettesNSt3__112basic_stringIcNS_11char_traitsIcEENS_9allocatorIcEEEERNS_6vectorI5pointNS3_IS7_EEEERNS6_I7clusterNS3_ISB_EEEE, symObjAddr: 0x2704, symBinAddr: 0x100003C14, symSize: 0x524 }
  - { offsetInCU: 0x14ED2, offset: 0x14ED2, size: 0x8, addend: 0x0, symName: __ZNKSt3__16vectorI7clusterNS_9allocatorIS1_EEE4sizeB7v160006Ev, symObjAddr: 0x2C28, symBinAddr: 0x100004138, symSize: 0x28 }
  - { offsetInCU: 0x14EF8, offset: 0x14EF8, size: 0x8, addend: 0x0, symName: __ZNK7cluster11pointGetterEv, symObjAddr: 0x2C50, symBinAddr: 0x100004160, symSize: 0x14 }
  - { offsetInCU: 0x14F1E, offset: 0x14F1E, size: 0x8, addend: 0x0, symName: __ZNK5pointneERKS_, symObjAddr: 0x2CD8, symBinAddr: 0x1000041E8, symSize: 0x34 }
  - { offsetInCU: 0x14F52, offset: 0x14F52, size: 0x8, addend: 0x0, symName: __ZNSt3__16vectorIdNS_9allocatorIdEEE5beginB7v160006Ev, symObjAddr: 0x2D38, symBinAddr: 0x100004248, symSize: 0x30 }
  - { offsetInCU: 0x14F7A, offset: 0x14F7A, size: 0x8, addend: 0x0, symName: __ZNSt3__16vectorIdNS_9allocatorIdEEE3endB7v160006Ev, symObjAddr: 0x2D68, symBinAddr: 0x100004278, symSize: 0x30 }
  - { offsetInCU: 0x14FA2, offset: 0x14FA2, size: 0x8, addend: 0x0, symName: __ZNKSt3__111__wrap_iterIPdEdeB7v160006Ev, symObjAddr: 0x2DCC, symBinAddr: 0x1000042DC, symSize: 0x18 }
  - { offsetInCU: 0x14FC8, offset: 0x14FC8, size: 0x8, addend: 0x0, symName: __ZNSt3__111__wrap_iterIPdEppB7v160006Ev, symObjAddr: 0x2DE4, symBinAddr: 0x1000042F4, symSize: 0x20 }
  - { offsetInCU: 0x14FED, offset: 0x14FED, size: 0x8, addend: 0x0, symName: __Z4testNSt3__112basic_stringIcNS_11char_traitsIcEENS_9allocatorIcEEEES5_S5_S5_, symObjAddr: 0x2E04, symBinAddr: 0x100004314, symSize: 0x148 }
  - { offsetInCU: 0x15061, offset: 0x15061, size: 0x8, addend: 0x0, symName: _main, symObjAddr: 0x2F4C, symBinAddr: 0x10000445C, symSize: 0x118 }
  - { offsetInCU: 0x1507B, offset: 0x1507B, size: 0x8, addend: 0x0, symName: __ZN5pointC2ERKNSt3__16vectorIdNS0_9allocatorIdEEEE, symObjAddr: 0x3064, symBinAddr: 0x100004574, symSize: 0x48 }
  - { offsetInCU: 0x150B3, offset: 0x150B3, size: 0x8, addend: 0x0, symName: __ZN5pointD2Ev, symObjAddr: 0x30AC, symBinAddr: 0x1000045BC, symSize: 0x2C }
  - { offsetInCU: 0x150DF, offset: 0x150DF, size: 0x8, addend: 0x0, symName: __ZNSt3__118basic_stringstreamIcNS_11char_traitsIcEENS_9allocatorIcEEED2Ev, symObjAddr: 0x30D8, symBinAddr: 0x1000045E8, symSize: 0x6C }
  - { offsetInCU: 0x15119, offset: 0x15119, size: 0x8, addend: 0x0, symName: __ZThn16_NSt3__118basic_stringstreamIcNS_11char_traitsIcEENS_9allocatorIcEEED1Ev, symObjAddr: 0x3144, symBinAddr: 0x100004654, symSize: 0x1C }
  - { offsetInCU: 0x15130, offset: 0x15130, size: 0x8, addend: 0x0, symName: __ZTv0_n24_NSt3__118basic_stringstreamIcNS_11char_traitsIcEENS_9allocatorIcEEED1Ev, symObjAddr: 0x3160, symBinAddr: 0x100004670, symSize: 0x28 }
  - { offsetInCU: 0x1514C, offset: 0x1514C, size: 0x8, addend: 0x0, symName: __ZNSt3__115basic_stringbufIcNS_11char_traitsIcEENS_9allocatorIcEEED1Ev, symObjAddr: 0x3188, symBinAddr: 0x100004698, symSize: 0x2C }
  - { offsetInCU: 0x15179, offset: 0x15179, size: 0x8, addend: 0x0, symName: __ZNSt3__115basic_stringbufIcNS_11char_traitsIcEENS_9allocatorIcEEED2Ev, symObjAddr: 0x31B4, symBinAddr: 0x1000046C4, symSize: 0x48 }
  - { offsetInCU: 0x151A6, offset: 0x151A6, size: 0x8, addend: 0x0, symName: __ZNSt3__114basic_ifstreamIcNS_11char_traitsIcEEED2Ev, symObjAddr: 0x31FC, symBinAddr: 0x10000470C, symSize: 0x64 }
  - { offsetInCU: 0x151E0, offset: 0x151E0, size: 0x8, addend: 0x0, symName: __ZTv0_n24_NSt3__114basic_ifstreamIcNS_11char_traitsIcEEED1Ev, symObjAddr: 0x3260, symBinAddr: 0x100004770, symSize: 0x28 }
  - { offsetInCU: 0x151F7, offset: 0x151F7, size: 0x8, addend: 0x0, symName: __ZNKSt3__111__wrap_iterIP5pointE4baseB7v160006Ev, symObjAddr: 0x32D0, symBinAddr: 0x1000047E0, symSize: 0x18 }
  - { offsetInCU: 0x1521D, offset: 0x1521D, size: 0x8, addend: 0x0, symName: __ZNSt3__123__libcpp_numeric_limitsIdLb1EE3maxB7v160006Ev, symObjAddr: 0x32E8, symBinAddr: 0x1000047F8, symSize: 0xC }
  - { offsetInCU: 0x15231, offset: 0x15231, size: 0x8, addend: 0x0, symName: __ZNKSt3__111__wrap_iterIPK5pointE4baseB7v160006Ev, symObjAddr: 0x333C, symBinAddr: 0x10000484C, symSize: 0x18 }
  - { offsetInCU: 0x15257, offset: 0x15257, size: 0x8, addend: 0x0, symName: __ZNSt3__16vectorIdNS_9allocatorIdEEEaSB7v160006ERKS3_, symObjAddr: 0x3354, symBinAddr: 0x100004864, symSize: 0x68 }
  - { offsetInCU: 0x1528E, offset: 0x1528E, size: 0x8, addend: 0x0, symName: __ZNSt3__16vectorIdNS_9allocatorIdEEE19__copy_assign_allocB7v160006ERKS3_, symObjAddr: 0x33BC, symBinAddr: 0x1000048CC, symSize: 0x2C }
  - { offsetInCU: 0x152C3, offset: 0x152C3, size: 0x8, addend: 0x0, symName: __ZNSt3__16vectorIdNS_9allocatorIdEEE6assignIPdLi0EEEvT_S6_, symObjAddr: 0x33E8, symBinAddr: 0x1000048F8, symSize: 0x17C }
  - { offsetInCU: 0x15363, offset: 0x15363, size: 0x8, addend: 0x0, symName: __ZNSt3__16vectorIdNS_9allocatorIdEEE19__copy_assign_allocB7v160006ERKS3_NS_17integral_constantIbLb0EEE, symObjAddr: 0x3564, symBinAddr: 0x100004A74, symSize: 0x14 }
  - { offsetInCU: 0x1539F, offset: 0x1539F, size: 0x8, addend: 0x0, symName: __ZNKSt3__16vectorIdNS_9allocatorIdEEE8capacityB7v160006Ev, symObjAddr: 0x35A4, symBinAddr: 0x100004AB4, symSize: 0x40 }
  - { offsetInCU: 0x153C5, offset: 0x153C5, size: 0x8, addend: 0x0, symName: __ZNSt3__16vectorIdNS_9allocatorIdEEE18__construct_at_endIPdLi0EEEvT_S6_m, symObjAddr: 0x3674, symBinAddr: 0x100004B84, symSize: 0x8C }
  - { offsetInCU: 0x15438, offset: 0x15438, size: 0x8, addend: 0x0, symName: __ZNSt3__16vectorIdNS_9allocatorIdEEE17__destruct_at_endB7v160006EPd, symObjAddr: 0x3700, symBinAddr: 0x100004C10, symSize: 0x60 }
  - { offsetInCU: 0x1547C, offset: 0x1547C, size: 0x8, addend: 0x0, symName: __ZNSt3__16vectorIdNS_9allocatorIdEEE13__vdeallocateEv, symObjAddr: 0x3760, symBinAddr: 0x100004C70, symSize: 0x8C }
  - { offsetInCU: 0x154A4, offset: 0x154A4, size: 0x8, addend: 0x0, symName: __ZNSt3__16vectorIdNS_9allocatorIdEEE11__vallocateB7v160006Em, symObjAddr: 0x37EC, symBinAddr: 0x100004CFC, symSize: 0xAC }
  - { offsetInCU: 0x154E8, offset: 0x154E8, size: 0x8, addend: 0x0, symName: __ZNKSt3__16vectorIdNS_9allocatorIdEEE11__recommendB7v160006Em, symObjAddr: 0x3898, symBinAddr: 0x100004DA8, symSize: 0xB4 }
  - { offsetInCU: 0x1553D, offset: 0x1553D, size: 0x8, addend: 0x0, symName: __ZNKSt3__16vectorIdNS_9allocatorIdEEE9__end_capB7v160006Ev, symObjAddr: 0x3984, symBinAddr: 0x100004E94, symSize: 0x28 }
  - { offsetInCU: 0x15563, offset: 0x15563, size: 0x8, addend: 0x0, symName: __ZNKSt3__117__compressed_pairIPdNS_9allocatorIdEEE5firstB7v160006Ev, symObjAddr: 0x39AC, symBinAddr: 0x100004EBC, symSize: 0x24 }
  - { offsetInCU: 0x15589, offset: 0x15589, size: 0x8, addend: 0x0, symName: __ZNKSt3__122__compressed_pair_elemIPdLi0ELb0EE5__getB7v160006Ev, symObjAddr: 0x39D0, symBinAddr: 0x100004EE0, symSize: 0x14 }
  - { offsetInCU: 0x155D2, offset: 0x155D2, size: 0x8, addend: 0x0, symName: __ZNKSt3__114__copy_trivialclB7v160006IddLi0EEENS_4pairIPT_PT0_EES4_S4_S6_, symObjAddr: 0x3BBC, symBinAddr: 0x1000050CC, symSize: 0x48 }
  - { offsetInCU: 0x1563F, offset: 0x1563F, size: 0x8, addend: 0x0, symName: __ZNSt3__14pairIPdS1_EC1B7v160006IRS1_S1_LPv0EEEOT_OT0_, symObjAddr: 0x3D84, symBinAddr: 0x100005294, symSize: 0x3C }
  - { offsetInCU: 0x1569D, offset: 0x1569D, size: 0x8, addend: 0x0, symName: __ZNSt3__14pairIPdS1_EC2B7v160006IRS1_S1_LPv0EEEOT_OT0_, symObjAddr: 0x3DC0, symBinAddr: 0x1000052D0, symSize: 0x34 }
  - { offsetInCU: 0x156FB, offset: 0x156FB, size: 0x8, addend: 0x0, symName: __ZNSt3__118__unwrap_iter_implIPdLb1EE8__unwrapB7v160006ES1_, symObjAddr: 0x3DF4, symBinAddr: 0x100005304, symSize: 0x24 }
  - { offsetInCU: 0x1571E, offset: 0x1571E, size: 0x8, addend: 0x0, symName: __ZNSt3__14pairIPdS1_EC1B7v160006IS1_S1_LPv0EEEOT_OT0_, symObjAddr: 0x3E2C, symBinAddr: 0x10000533C, symSize: 0x3C }
  - { offsetInCU: 0x1577C, offset: 0x1577C, size: 0x8, addend: 0x0, symName: __ZNSt3__14pairIPdS1_EC2B7v160006IS1_S1_LPv0EEEOT_OT0_, symObjAddr: 0x3E68, symBinAddr: 0x100005378, symSize: 0x34 }
  - { offsetInCU: 0x157DA, offset: 0x157DA, size: 0x8, addend: 0x0, symName: __ZNSt3__118__unwrap_iter_implIPdLb1EE8__rewrapB7v160006ES1_S1_, symObjAddr: 0x3E9C, symBinAddr: 0x1000053AC, symSize: 0x50 }
  - { offsetInCU: 0x15824, offset: 0x15824, size: 0x8, addend: 0x0, symName: __ZNSt3__16vectorIdNS_9allocatorIdEEE21_ConstructTransactionC1B7v160006ERS3_m, symObjAddr: 0x3EF8, symBinAddr: 0x100005408, symSize: 0x3C }
  - { offsetInCU: 0x1586C, offset: 0x1586C, size: 0x8, addend: 0x0, symName: __ZNSt3__16vectorIdNS_9allocatorIdEEE7__allocB7v160006Ev, symObjAddr: 0x4028, symBinAddr: 0x100005538, symSize: 0x28 }
  - { offsetInCU: 0x15892, offset: 0x15892, size: 0x8, addend: 0x0, symName: __ZNSt3__16vectorIdNS_9allocatorIdEEE21_ConstructTransactionD1B7v160006Ev, symObjAddr: 0x4050, symBinAddr: 0x100005560, symSize: 0x2C }
  - { offsetInCU: 0x158BC, offset: 0x158BC, size: 0x8, addend: 0x0, symName: __ZNSt3__16vectorIdNS_9allocatorIdEEE21_ConstructTransactionC2B7v160006ERS3_m, symObjAddr: 0x407C, symBinAddr: 0x10000558C, symSize: 0x44 }
  - { offsetInCU: 0x15904, offset: 0x15904, size: 0x8, addend: 0x0, symName: __ZNSt3__129_AllocatorDestroyRangeReverseINS_9allocatorIdEEPdEC1B7v160006ERS2_RS3_S6_, symObjAddr: 0x410C, symBinAddr: 0x10000561C, symSize: 0x44 }
  - { offsetInCU: 0x1595B, offset: 0x1595B, size: 0x8, addend: 0x0, symName: __ZNSt3__116allocator_traitsINS_9allocatorIdEEE9constructB7v160006IdJRdEvEEvRS2_PT_DpOT0_, symObjAddr: 0x4150, symBinAddr: 0x100005660, symSize: 0x34 }
  - { offsetInCU: 0x159B2, offset: 0x159B2, size: 0x8, addend: 0x0, symName: __ZNSt3__128__exception_guard_exceptionsINS_29_AllocatorDestroyRangeReverseINS_9allocatorIdEEPdEEE10__completeB7v160006Ev, symObjAddr: 0x4184, symBinAddr: 0x100005694, symSize: 0x1C }
  - { offsetInCU: 0x159D8, offset: 0x159D8, size: 0x8, addend: 0x0, symName: __ZNSt3__128__exception_guard_exceptionsINS_29_AllocatorDestroyRangeReverseINS_9allocatorIdEEPdEEED1B7v160006Ev, symObjAddr: 0x41A0, symBinAddr: 0x1000056B0, symSize: 0x2C }
  - { offsetInCU: 0x15A02, offset: 0x15A02, size: 0x8, addend: 0x0, symName: __ZNSt3__128__exception_guard_exceptionsINS_29_AllocatorDestroyRangeReverseINS_9allocatorIdEEPdEEEC1B7v160006ES5_, symObjAddr: 0x41CC, symBinAddr: 0x1000056DC, symSize: 0x34 }
  - { offsetInCU: 0x15A3B, offset: 0x15A3B, size: 0x8, addend: 0x0, symName: __ZNSt3__128__exception_guard_exceptionsINS_29_AllocatorDestroyRangeReverseINS_9allocatorIdEEPdEEEC2B7v160006ES5_, symObjAddr: 0x4200, symBinAddr: 0x100005710, symSize: 0x30 }
  - { offsetInCU: 0x15A74, offset: 0x15A74, size: 0x8, addend: 0x0, symName: __ZNSt3__129_AllocatorDestroyRangeReverseINS_9allocatorIdEEPdEC2B7v160006ERS2_RS3_S6_, symObjAddr: 0x4230, symBinAddr: 0x100005740, symSize: 0x38 }
  - { offsetInCU: 0x15ACB, offset: 0x15ACB, size: 0x8, addend: 0x0, symName: __ZNSt3__19allocatorIdE9constructB7v160006IdJRdEEEvPT_DpOT0_, symObjAddr: 0x4268, symBinAddr: 0x100005778, symSize: 0x28 }
  - { offsetInCU: 0x15B21, offset: 0x15B21, size: 0x8, addend: 0x0, symName: __ZNSt3__128__exception_guard_exceptionsINS_29_AllocatorDestroyRangeReverseINS_9allocatorIdEEPdEEED2B7v160006Ev, symObjAddr: 0x4290, symBinAddr: 0x1000057A0, symSize: 0x50 }
  - { offsetInCU: 0x15B4B, offset: 0x15B4B, size: 0x8, addend: 0x0, symName: __ZNKSt3__129_AllocatorDestroyRangeReverseINS_9allocatorIdEEPdEclB7v160006Ev, symObjAddr: 0x42E0, symBinAddr: 0x1000057F0, symSize: 0x68 }
  - { offsetInCU: 0x15B71, offset: 0x15B71, size: 0x8, addend: 0x0, symName: __ZNSt3__116reverse_iteratorIPdEC1B7v160006ES1_, symObjAddr: 0x43B8, symBinAddr: 0x1000058C8, symSize: 0x34 }
  - { offsetInCU: 0x15BA9, offset: 0x15BA9, size: 0x8, addend: 0x0, symName: __ZNSt3__116allocator_traitsINS_9allocatorIdEEE7destroyB7v160006IdvEEvRS2_PT_, symObjAddr: 0x4434, symBinAddr: 0x100005944, symSize: 0x2C }
  - { offsetInCU: 0x15BE6, offset: 0x15BE6, size: 0x8, addend: 0x0, symName: __ZNSt3__116reverse_iteratorIPdEppB7v160006Ev, symObjAddr: 0x4484, symBinAddr: 0x100005994, symSize: 0x20 }
  - { offsetInCU: 0x15C0C, offset: 0x15C0C, size: 0x8, addend: 0x0, symName: __ZNKSt3__116reverse_iteratorIPdE4baseB7v160006Ev, symObjAddr: 0x44A4, symBinAddr: 0x1000059B4, symSize: 0x18 }
  - { offsetInCU: 0x15C32, offset: 0x15C32, size: 0x8, addend: 0x0, symName: __ZNSt3__19allocatorIdE7destroyB7v160006EPd, symObjAddr: 0x44BC, symBinAddr: 0x1000059CC, symSize: 0x14 }
  - { offsetInCU: 0x15C6B, offset: 0x15C6B, size: 0x8, addend: 0x0, symName: __ZNSt3__119__to_address_helperINS_16reverse_iteratorIPdEEvE6__callB7v160006ERKS3_, symObjAddr: 0x44D0, symBinAddr: 0x1000059E0, symSize: 0x38 }
  - { offsetInCU: 0x15C8E, offset: 0x15C8E, size: 0x8, addend: 0x0, symName: __ZNKSt3__116reverse_iteratorIPdEptB7v160006Ev, symObjAddr: 0x4508, symBinAddr: 0x100005A18, symSize: 0x24 }
  - { offsetInCU: 0x15CB4, offset: 0x15CB4, size: 0x8, addend: 0x0, symName: __ZNKSt3__116reverse_iteratorIPdEdeB7v160006Ev, symObjAddr: 0x452C, symBinAddr: 0x100005A3C, symSize: 0x28 }
  - { offsetInCU: 0x15CE8, offset: 0x15CE8, size: 0x8, addend: 0x0, symName: __ZNSt3__116reverse_iteratorIPdEC2B7v160006ES1_, symObjAddr: 0x4554, symBinAddr: 0x100005A64, symSize: 0x28 }
  - { offsetInCU: 0x15D20, offset: 0x15D20, size: 0x8, addend: 0x0, symName: __ZNSt3__117__compressed_pairIPdNS_9allocatorIdEEE6secondB7v160006Ev, symObjAddr: 0x457C, symBinAddr: 0x100005A8C, symSize: 0x24 }
  - { offsetInCU: 0x15D46, offset: 0x15D46, size: 0x8, addend: 0x0, symName: __ZNSt3__122__compressed_pair_elemINS_9allocatorIdEELi1ELb1EE5__getB7v160006Ev, symObjAddr: 0x45A0, symBinAddr: 0x100005AB0, symSize: 0x14 }
  - { offsetInCU: 0x15D6C, offset: 0x15D6C, size: 0x8, addend: 0x0, symName: __ZNSt3__16vectorIdNS_9allocatorIdEEE21_ConstructTransactionD2B7v160006Ev, symObjAddr: 0x45B4, symBinAddr: 0x100005AC4, symSize: 0x20 }
  - { offsetInCU: 0x15D96, offset: 0x15D96, size: 0x8, addend: 0x0, symName: __ZNSt3__16vectorIdNS_9allocatorIdEEE27__invalidate_iterators_pastB7v160006EPd, symObjAddr: 0x45D4, symBinAddr: 0x100005AE4, symSize: 0x14 }
  - { offsetInCU: 0x15DCD, offset: 0x15DCD, size: 0x8, addend: 0x0, symName: __ZNSt3__16vectorIdNS_9allocatorIdEEE22__base_destruct_at_endB7v160006EPd, symObjAddr: 0x45E8, symBinAddr: 0x100005AF8, symSize: 0x8C }
  - { offsetInCU: 0x15E11, offset: 0x15E11, size: 0x8, addend: 0x0, symName: __ZNKSt3__16vectorIdNS_9allocatorIdEEE17__annotate_shrinkB7v160006Em, symObjAddr: 0x4674, symBinAddr: 0x100005B84, symSize: 0xB4 }
  - { offsetInCU: 0x15E46, offset: 0x15E46, size: 0x8, addend: 0x0, symName: __ZNKSt3__16vectorIdNS_9allocatorIdEEE31__annotate_contiguous_containerB7v160006EPKvS5_S5_S5_, symObjAddr: 0x4728, symBinAddr: 0x100005C38, symSize: 0x20 }
  - { offsetInCU: 0x15E98, offset: 0x15E98, size: 0x8, addend: 0x0, symName: __ZNKSt3__16vectorIdNS_9allocatorIdEEE4dataB7v160006Ev, symObjAddr: 0x4748, symBinAddr: 0x100005C58, symSize: 0x28 }
  - { offsetInCU: 0x15EBE, offset: 0x15EBE, size: 0x8, addend: 0x0, symName: __ZNSt3__16vectorIdNS_9allocatorIdEEE5clearB7v160006Ev, symObjAddr: 0x4770, symBinAddr: 0x100005C80, symSize: 0x54 }
  - { offsetInCU: 0x15EF3, offset: 0x15EF3, size: 0x8, addend: 0x0, symName: __ZNSt3__116allocator_traitsINS_9allocatorIdEEE10deallocateB7v160006ERS2_Pdm, symObjAddr: 0x47C4, symBinAddr: 0x100005CD4, symSize: 0x34 }
  - { offsetInCU: 0x15F35, offset: 0x15F35, size: 0x8, addend: 0x0, symName: __ZNSt3__16vectorIdNS_9allocatorIdEEE9__end_capB7v160006Ev, symObjAddr: 0x47F8, symBinAddr: 0x100005D08, symSize: 0x28 }
  - { offsetInCU: 0x15F5B, offset: 0x15F5B, size: 0x8, addend: 0x0, symName: __ZNSt3__16vectorIdNS_9allocatorIdEEE7__clearB7v160006Ev, symObjAddr: 0x4820, symBinAddr: 0x100005D30, symSize: 0x28 }
  - { offsetInCU: 0x15F81, offset: 0x15F81, size: 0x8, addend: 0x0, symName: __ZNSt3__19allocatorIdE10deallocateB7v160006EPdm, symObjAddr: 0x4848, symBinAddr: 0x100005D58, symSize: 0x40 }
  - { offsetInCU: 0x15FC3, offset: 0x15FC3, size: 0x8, addend: 0x0, symName: __ZNSt3__117__compressed_pairIPdNS_9allocatorIdEEE5firstB7v160006Ev, symObjAddr: 0x4904, symBinAddr: 0x100005E14, symSize: 0x24 }
  - { offsetInCU: 0x15FE9, offset: 0x15FE9, size: 0x8, addend: 0x0, symName: __ZNSt3__122__compressed_pair_elemIPdLi0ELb0EE5__getB7v160006Ev, symObjAddr: 0x4928, symBinAddr: 0x100005E38, symSize: 0x14 }
  - { offsetInCU: 0x1600F, offset: 0x1600F, size: 0x8, addend: 0x0, symName: __ZNKSt3__16vectorIdNS_9allocatorIdEEE8max_sizeEv, symObjAddr: 0x493C, symBinAddr: 0x100005E4C, symSize: 0x60 }
  - { offsetInCU: 0x16037, offset: 0x16037, size: 0x8, addend: 0x0, symName: __ZNKSt3__16vectorIdNS_9allocatorIdEEE20__throw_length_errorB7v160006Ev, symObjAddr: 0x499C, symBinAddr: 0x100005EAC, symSize: 0x1C }
  - { offsetInCU: 0x1605D, offset: 0x1605D, size: 0x8, addend: 0x0, symName: __ZNKSt3__16vectorIdNS_9allocatorIdEEE14__annotate_newB7v160006Em, symObjAddr: 0x49F8, symBinAddr: 0x100005F08, symSize: 0xAC }
  - { offsetInCU: 0x1609C, offset: 0x1609C, size: 0x8, addend: 0x0, symName: __ZNSt3__116allocator_traitsINS_9allocatorIdEEE8max_sizeB7v160006IS2_vEEmRKS2_, symObjAddr: 0x4AD0, symBinAddr: 0x100005FE0, symSize: 0x24 }
  - { offsetInCU: 0x160CA, offset: 0x160CA, size: 0x8, addend: 0x0, symName: __ZNKSt3__16vectorIdNS_9allocatorIdEEE7__allocB7v160006Ev, symObjAddr: 0x4AF4, symBinAddr: 0x100006004, symSize: 0x28 }
  - { offsetInCU: 0x160F0, offset: 0x160F0, size: 0x8, addend: 0x0, symName: __ZNSt3__114numeric_limitsIlE3maxB7v160006Ev, symObjAddr: 0x4B1C, symBinAddr: 0x10000602C, symSize: 0x14 }
  - { offsetInCU: 0x16118, offset: 0x16118, size: 0x8, addend: 0x0, symName: __ZNKSt3__16__lessImmEclB7v160006ERKmS3_, symObjAddr: 0x4B84, symBinAddr: 0x100006094, symSize: 0x34 }
  - { offsetInCU: 0x1615A, offset: 0x1615A, size: 0x8, addend: 0x0, symName: __ZNKSt3__19allocatorIdE8max_sizeB7v160006Ev, symObjAddr: 0x4BB8, symBinAddr: 0x1000060C8, symSize: 0x14 }
  - { offsetInCU: 0x16180, offset: 0x16180, size: 0x8, addend: 0x0, symName: __ZNKSt3__117__compressed_pairIPdNS_9allocatorIdEEE6secondB7v160006Ev, symObjAddr: 0x4BCC, symBinAddr: 0x1000060DC, symSize: 0x24 }
  - { offsetInCU: 0x161A6, offset: 0x161A6, size: 0x8, addend: 0x0, symName: __ZNKSt3__122__compressed_pair_elemINS_9allocatorIdEELi1ELb1EE5__getB7v160006Ev, symObjAddr: 0x4BF0, symBinAddr: 0x100006100, symSize: 0x14 }
  - { offsetInCU: 0x161CC, offset: 0x161CC, size: 0x8, addend: 0x0, symName: __ZNSt3__123__libcpp_numeric_limitsIlLb1EE3maxB7v160006Ev, symObjAddr: 0x4C04, symBinAddr: 0x100006114, symSize: 0x8 }
  - { offsetInCU: 0x161E0, offset: 0x161E0, size: 0x8, addend: 0x0, symName: __ZNSt12length_errorC1B7v160006EPKc, symObjAddr: 0x4C70, symBinAddr: 0x100006180, symSize: 0x34 }
  - { offsetInCU: 0x16218, offset: 0x16218, size: 0x8, addend: 0x0, symName: __ZNSt12length_errorC2B7v160006EPKc, symObjAddr: 0x4CA4, symBinAddr: 0x1000061B4, symSize: 0x4C }
  - { offsetInCU: 0x16250, offset: 0x16250, size: 0x8, addend: 0x0, symName: __ZNSt3__19allocatorIdE8allocateB7v160006Em, symObjAddr: 0x4CF0, symBinAddr: 0x100006200, symSize: 0x58 }
  - { offsetInCU: 0x16284, offset: 0x16284, size: 0x8, addend: 0x0, symName: __ZN7clusterC2ERKNSt3__16vectorI5pointNS0_9allocatorIS2_EEEE, symObjAddr: 0x4E48, symBinAddr: 0x100006358, symSize: 0x34 }
  - { offsetInCU: 0x162BC, offset: 0x162BC, size: 0x8, addend: 0x0, symName: __ZN7clusterD2Ev, symObjAddr: 0x4E7C, symBinAddr: 0x10000638C, symSize: 0x2C }
  - { offsetInCU: 0x162E8, offset: 0x162E8, size: 0x8, addend: 0x0, symName: __ZNSt3__114basic_ofstreamIcNS_11char_traitsIcEEED2Ev, symObjAddr: 0x4EA8, symBinAddr: 0x1000063B8, symSize: 0x64 }
  - { offsetInCU: 0x16322, offset: 0x16322, size: 0x8, addend: 0x0, symName: __ZTv0_n24_NSt3__114basic_ofstreamIcNS_11char_traitsIcEEED1Ev, symObjAddr: 0x4F0C, symBinAddr: 0x10000641C, symSize: 0x28 }
  - { offsetInCU: 0x16339, offset: 0x16339, size: 0x8, addend: 0x0, symName: __ZNK5pointeqERKS_, symObjAddr: 0x4F34, symBinAddr: 0x100006444, symSize: 0x30 }
  - { offsetInCU: 0x1636D, offset: 0x1636D, size: 0x8, addend: 0x0, symName: __ZNKSt3__16vectorIdNS_9allocatorIdEEE5beginB7v160006Ev, symObjAddr: 0x5050, symBinAddr: 0x100006560, symSize: 0x30 }
  - { offsetInCU: 0x16395, offset: 0x16395, size: 0x8, addend: 0x0, symName: __ZNKSt3__16vectorIdNS_9allocatorIdEEE3endB7v160006Ev, symObjAddr: 0x5080, symBinAddr: 0x100006590, symSize: 0x30 }
  - { offsetInCU: 0x163C7, offset: 0x163C7, size: 0x8, addend: 0x0, symName: __ZNKSt3__110__equal_toclB7v160006IddEEbRKT_RKT0_, symObjAddr: 0x5194, symBinAddr: 0x1000066A4, symSize: 0x34 }
  - { offsetInCU: 0x1641B, offset: 0x1641B, size: 0x8, addend: 0x0, symName: __ZNKSt3__111__wrap_iterIPKdEdeB7v160006Ev, symObjAddr: 0x51C8, symBinAddr: 0x1000066D8, symSize: 0x18 }
  - { offsetInCU: 0x16441, offset: 0x16441, size: 0x8, addend: 0x0, symName: __ZNSt3__111__wrap_iterIPKdEppB7v160006Ev, symObjAddr: 0x51E0, symBinAddr: 0x1000066F0, symSize: 0x20 }
  - { offsetInCU: 0x16467, offset: 0x16467, size: 0x8, addend: 0x0, symName: __ZNKSt3__111__wrap_iterIPKdE4baseB7v160006Ev, symObjAddr: 0x5248, symBinAddr: 0x100006758, symSize: 0x18 }
  - { offsetInCU: 0x1648D, offset: 0x1648D, size: 0x8, addend: 0x0, symName: __ZNKSt3__16vectorIdNS_9allocatorIdEEE11__make_iterB7v160006EPKd, symObjAddr: 0x5260, symBinAddr: 0x100006770, symSize: 0x34 }
  - { offsetInCU: 0x164C2, offset: 0x164C2, size: 0x8, addend: 0x0, symName: __ZNSt3__111__wrap_iterIPKdEC1B7v160006EPKvS2_, symObjAddr: 0x5294, symBinAddr: 0x1000067A4, symSize: 0x3C }
  - { offsetInCU: 0x16508, offset: 0x16508, size: 0x8, addend: 0x0, symName: __ZNSt3__111__wrap_iterIPKdEC2B7v160006EPKvS2_, symObjAddr: 0x52D0, symBinAddr: 0x1000067E0, symSize: 0x24 }
  - { offsetInCU: 0x16558, offset: 0x16558, size: 0x8, addend: 0x0, symName: __ZNKSt3__16__lessIddEclB7v160006ERKdS3_, symObjAddr: 0x5348, symBinAddr: 0x100006858, symSize: 0x34 }
  - { offsetInCU: 0x1659A, offset: 0x1659A, size: 0x8, addend: 0x0, symName: __ZNKSt3__111__wrap_iterIPdE4baseB7v160006Ev, symObjAddr: 0x53C4, symBinAddr: 0x1000068D4, symSize: 0x18 }
  - { offsetInCU: 0x165C0, offset: 0x165C0, size: 0x8, addend: 0x0, symName: __ZNSt3__112basic_stringIcNS_11char_traitsIcEENS_9allocatorIcEEEC2B7v160006IDnEEPKc, symObjAddr: 0x53DC, symBinAddr: 0x1000068EC, symSize: 0x60 }
  - { offsetInCU: 0x16603, offset: 0x16603, size: 0x8, addend: 0x0, symName: __ZNSt3__117__compressed_pairINS_12basic_stringIcNS_11char_traitsIcEENS_9allocatorIcEEE5__repES5_EC1B7v160006INS_18__default_init_tagESA_EEOT_OT0_, symObjAddr: 0x543C, symBinAddr: 0x10000694C, symSize: 0x3C }
  - { offsetInCU: 0x1665B, offset: 0x1665B, size: 0x8, addend: 0x0, symName: __ZNSt3__111char_traitsIcE6lengthEPKc, symObjAddr: 0x5478, symBinAddr: 0x100006988, symSize: 0x34 }
  - { offsetInCU: 0x1667E, offset: 0x1667E, size: 0x8, addend: 0x0, symName: __ZNSt3__117__compressed_pairINS_12basic_stringIcNS_11char_traitsIcEENS_9allocatorIcEEE5__repES5_EC2B7v160006INS_18__default_init_tagESA_EEOT_OT0_, symObjAddr: 0x54BC, symBinAddr: 0x1000069CC, symSize: 0x3C }
  - { offsetInCU: 0x166D6, offset: 0x166D6, size: 0x8, addend: 0x0, symName: __ZNSt3__122__compressed_pair_elemINS_12basic_stringIcNS_11char_traitsIcEENS_9allocatorIcEEE5__repELi0ELb0EEC2B7v160006ENS_18__default_init_tagE, symObjAddr: 0x54F8, symBinAddr: 0x100006A08, symSize: 0x14 }
  - { offsetInCU: 0x1670A, offset: 0x1670A, size: 0x8, addend: 0x0, symName: __ZNSt3__122__compressed_pair_elemINS_9allocatorIcEELi1ELb1EEC2B7v160006ENS_18__default_init_tagE, symObjAddr: 0x550C, symBinAddr: 0x100006A1C, symSize: 0x2C }
  - { offsetInCU: 0x1673E, offset: 0x1673E, size: 0x8, addend: 0x0, symName: __ZNSt3__19allocatorIcEC2B7v160006Ev, symObjAddr: 0x5538, symBinAddr: 0x100006A48, symSize: 0x2C }
  - { offsetInCU: 0x16768, offset: 0x16768, size: 0x8, addend: 0x0, symName: __ZNSt3__116__non_trivial_ifILb1ENS_9allocatorIcEEEC2B7v160006Ev, symObjAddr: 0x5564, symBinAddr: 0x100006A74, symSize: 0x14 }
  - { offsetInCU: 0x16792, offset: 0x16792, size: 0x8, addend: 0x0, symName: __ZNSt3__112basic_stringIcNS_11char_traitsIcEENS_9allocatorIcEEEC2B7v160006Ev, symObjAddr: 0x559C, symBinAddr: 0x100006AAC, symSize: 0x50 }
  - { offsetInCU: 0x167BC, offset: 0x167BC, size: 0x8, addend: 0x0, symName: __ZNSt3__112basic_stringIcNS_11char_traitsIcEENS_9allocatorIcEEE14__default_initB7v160006Ev, symObjAddr: 0x55EC, symBinAddr: 0x100006AFC, symSize: 0x40 }
  - { offsetInCU: 0x167E2, offset: 0x167E2, size: 0x8, addend: 0x0, symName: __ZNSt3__117__compressed_pairINS_12basic_stringIcNS_11char_traitsIcEENS_9allocatorIcEEE5__repES5_E5firstB7v160006Ev, symObjAddr: 0x562C, symBinAddr: 0x100006B3C, symSize: 0x24 }
  - { offsetInCU: 0x16808, offset: 0x16808, size: 0x8, addend: 0x0, symName: __ZNSt3__122__compressed_pair_elemINS_12basic_stringIcNS_11char_traitsIcEENS_9allocatorIcEEE5__repELi0ELb0EE5__getB7v160006Ev, symObjAddr: 0x5650, symBinAddr: 0x100006B60, symSize: 0x14 }
  - { offsetInCU: 0x1682E, offset: 0x1682E, size: 0x8, addend: 0x0, symName: __ZNSt3__16vectorIdNS_9allocatorIdEEEC2ERKS3_, symObjAddr: 0x5664, symBinAddr: 0x100006B74, symSize: 0x114 }
  - { offsetInCU: 0x1688D, offset: 0x1688D, size: 0x8, addend: 0x0, symName: __ZNSt3__116allocator_traitsINS_9allocatorIdEEE37select_on_container_copy_constructionB7v160006IS2_vvEES2_RKS2_, symObjAddr: 0x5778, symBinAddr: 0x100006C88, symSize: 0x10 }
  - { offsetInCU: 0x168C6, offset: 0x168C6, size: 0x8, addend: 0x0, symName: __ZNSt3__117__compressed_pairIPdNS_9allocatorIdEEEC1B7v160006IDnS3_EEOT_OT0_, symObjAddr: 0x5788, symBinAddr: 0x100006C98, symSize: 0x3C }
  - { offsetInCU: 0x1691E, offset: 0x1691E, size: 0x8, addend: 0x0, symName: __ZNSt3__16vectorIdNS_9allocatorIdEEE16__destroy_vectorC1ERS3_, symObjAddr: 0x5804, symBinAddr: 0x100006D14, symSize: 0x34 }
  - { offsetInCU: 0x16957, offset: 0x16957, size: 0x8, addend: 0x0, symName: __ZNSt3__128__exception_guard_exceptionsINS_6vectorIdNS_9allocatorIdEEE16__destroy_vectorEE10__completeB7v160006Ev, symObjAddr: 0x5848, symBinAddr: 0x100006D58, symSize: 0x1C }
  - { offsetInCU: 0x1697D, offset: 0x1697D, size: 0x8, addend: 0x0, symName: __ZNSt3__128__exception_guard_exceptionsINS_6vectorIdNS_9allocatorIdEEE16__destroy_vectorEED1B7v160006Ev, symObjAddr: 0x5864, symBinAddr: 0x100006D74, symSize: 0x2C }
  - { offsetInCU: 0x169A7, offset: 0x169A7, size: 0x8, addend: 0x0, symName: __ZNSt3__117__compressed_pairIPdNS_9allocatorIdEEEC2B7v160006IDnS3_EEOT_OT0_, symObjAddr: 0x5890, symBinAddr: 0x100006DA0, symSize: 0x44 }
  - { offsetInCU: 0x169FF, offset: 0x169FF, size: 0x8, addend: 0x0, symName: __ZNSt3__122__compressed_pair_elemIPdLi0ELb0EEC2B7v160006IDnvEEOT_, symObjAddr: 0x58D4, symBinAddr: 0x100006DE4, symSize: 0x1C }
  - { offsetInCU: 0x16A41, offset: 0x16A41, size: 0x8, addend: 0x0, symName: __ZNSt3__122__compressed_pair_elemINS_9allocatorIdEELi1ELb1EEC2B7v160006IS2_vEEOT_, symObjAddr: 0x58F0, symBinAddr: 0x100006E00, symSize: 0x18 }
  - { offsetInCU: 0x16A83, offset: 0x16A83, size: 0x8, addend: 0x0, symName: __ZNSt3__128__exception_guard_exceptionsINS_6vectorIdNS_9allocatorIdEEE16__destroy_vectorEEC1B7v160006ES5_, symObjAddr: 0x5908, symBinAddr: 0x100006E18, symSize: 0x34 }
  - { offsetInCU: 0x16ABB, offset: 0x16ABB, size: 0x8, addend: 0x0, symName: __ZNSt3__128__exception_guard_exceptionsINS_6vectorIdNS_9allocatorIdEEE16__destroy_vectorEEC2B7v160006ES5_, symObjAddr: 0x593C, symBinAddr: 0x100006E4C, symSize: 0x24 }
  - { offsetInCU: 0x16AF3, offset: 0x16AF3, size: 0x8, addend: 0x0, symName: __ZNSt3__16vectorIdNS_9allocatorIdEEE16__destroy_vectorC2ERS3_, symObjAddr: 0x5960, symBinAddr: 0x100006E70, symSize: 0x20 }
  - { offsetInCU: 0x16B2C, offset: 0x16B2C, size: 0x8, addend: 0x0, symName: __ZNSt3__128__exception_guard_exceptionsINS_6vectorIdNS_9allocatorIdEEE16__destroy_vectorEED2B7v160006Ev, symObjAddr: 0x5980, symBinAddr: 0x100006E90, symSize: 0x50 }
  - { offsetInCU: 0x16B56, offset: 0x16B56, size: 0x8, addend: 0x0, symName: __ZNSt3__16vectorIdNS_9allocatorIdEEE16__destroy_vectorclB7v160006Ev, symObjAddr: 0x59D0, symBinAddr: 0x100006EE0, symSize: 0x9C }
  - { offsetInCU: 0x16B7C, offset: 0x16B7C, size: 0x8, addend: 0x0, symName: __ZNKSt3__16vectorIdNS_9allocatorIdEEE17__annotate_deleteB7v160006Ev, symObjAddr: 0x5A6C, symBinAddr: 0x100006F7C, symSize: 0xB8 }
  - { offsetInCU: 0x16BA2, offset: 0x16BA2, size: 0x8, addend: 0x0, symName: __ZNSt3__16vectorIdNS_9allocatorIdEEED2B7v160006Ev, symObjAddr: 0x5B34, symBinAddr: 0x100007044, symSize: 0x44 }
  - { offsetInCU: 0x16BCC, offset: 0x16BCC, size: 0x8, addend: 0x0, symName: __ZNSt3__16vectorI5pointNS_9allocatorIS1_EEEC2ERKS4_, symObjAddr: 0x5B78, symBinAddr: 0x100007088, symSize: 0x114 }
  - { offsetInCU: 0x16C35, offset: 0x16C35, size: 0x8, addend: 0x0, symName: __ZNSt3__116allocator_traitsINS_9allocatorI5pointEEE37select_on_container_copy_constructionB7v160006IS3_vvEES3_RKS3_, symObjAddr: 0x5C8C, symBinAddr: 0x10000719C, symSize: 0x10 }
  - { offsetInCU: 0x16C64, offset: 0x16C64, size: 0x8, addend: 0x0, symName: __ZNKSt3__16vectorI5pointNS_9allocatorIS1_EEE7__allocB7v160006Ev, symObjAddr: 0x5C9C, symBinAddr: 0x1000071AC, symSize: 0x28 }
  - { offsetInCU: 0x16C8F, offset: 0x16C8F, size: 0x8, addend: 0x0, symName: __ZNSt3__117__compressed_pairIP5pointNS_9allocatorIS1_EEEC1B7v160006IDnS4_EEOT_OT0_, symObjAddr: 0x5CC4, symBinAddr: 0x1000071D4, symSize: 0x3C }
  - { offsetInCU: 0x16CE7, offset: 0x16CE7, size: 0x8, addend: 0x0, symName: __ZNSt3__16vectorI5pointNS_9allocatorIS1_EEE16__destroy_vectorC1ERS4_, symObjAddr: 0x5D40, symBinAddr: 0x100007250, symSize: 0x34 }
  - { offsetInCU: 0x16D20, offset: 0x16D20, size: 0x8, addend: 0x0, symName: __ZNSt3__16vectorI5pointNS_9allocatorIS1_EEE11__vallocateB7v160006Em, symObjAddr: 0x5D84, symBinAddr: 0x100007294, symSize: 0xB4 }
  - { offsetInCU: 0x16D64, offset: 0x16D64, size: 0x8, addend: 0x0, symName: __ZNSt3__16vectorI5pointNS_9allocatorIS1_EEE18__construct_at_endIPS1_Li0EEEvT_S7_m, symObjAddr: 0x5E38, symBinAddr: 0x100007348, symSize: 0x8C }
  - { offsetInCU: 0x16DD7, offset: 0x16DD7, size: 0x8, addend: 0x0, symName: __ZNSt3__128__exception_guard_exceptionsINS_6vectorI5pointNS_9allocatorIS2_EEE16__destroy_vectorEE10__completeB7v160006Ev, symObjAddr: 0x5EC4, symBinAddr: 0x1000073D4, symSize: 0x1C }
  - { offsetInCU: 0x16DFD, offset: 0x16DFD, size: 0x8, addend: 0x0, symName: __ZNSt3__128__exception_guard_exceptionsINS_6vectorI5pointNS_9allocatorIS2_EEE16__destroy_vectorEED1B7v160006Ev, symObjAddr: 0x5EE0, symBinAddr: 0x1000073F0, symSize: 0x2C }
  - { offsetInCU: 0x16E27, offset: 0x16E27, size: 0x8, addend: 0x0, symName: __ZNKSt3__117__compressed_pairIP5pointNS_9allocatorIS1_EEE6secondB7v160006Ev, symObjAddr: 0x5F0C, symBinAddr: 0x10000741C, symSize: 0x24 }
  - { offsetInCU: 0x16E4D, offset: 0x16E4D, size: 0x8, addend: 0x0, symName: __ZNKSt3__122__compressed_pair_elemINS_9allocatorI5pointEELi1ELb1EE5__getB7v160006Ev, symObjAddr: 0x5F30, symBinAddr: 0x100007440, symSize: 0x14 }
  - { offsetInCU: 0x16E73, offset: 0x16E73, size: 0x8, addend: 0x0, symName: __ZNSt3__117__compressed_pairIP5pointNS_9allocatorIS1_EEEC2B7v160006IDnS4_EEOT_OT0_, symObjAddr: 0x5F44, symBinAddr: 0x100007454, symSize: 0x44 }
  - { offsetInCU: 0x16ECB, offset: 0x16ECB, size: 0x8, addend: 0x0, symName: __ZNSt3__122__compressed_pair_elemIP5pointLi0ELb0EEC2B7v160006IDnvEEOT_, symObjAddr: 0x5F88, symBinAddr: 0x100007498, symSize: 0x1C }
  - { offsetInCU: 0x16F0D, offset: 0x16F0D, size: 0x8, addend: 0x0, symName: __ZNSt3__122__compressed_pair_elemINS_9allocatorI5pointEELi1ELb1EEC2B7v160006IS3_vEEOT_, symObjAddr: 0x5FA4, symBinAddr: 0x1000074B4, symSize: 0x18 }
  - { offsetInCU: 0x16F4F, offset: 0x16F4F, size: 0x8, addend: 0x0, symName: __ZNSt3__128__exception_guard_exceptionsINS_6vectorI5pointNS_9allocatorIS2_EEE16__destroy_vectorEEC1B7v160006ES6_, symObjAddr: 0x5FBC, symBinAddr: 0x1000074CC, symSize: 0x34 }
  - { offsetInCU: 0x16F87, offset: 0x16F87, size: 0x8, addend: 0x0, symName: __ZNSt3__128__exception_guard_exceptionsINS_6vectorI5pointNS_9allocatorIS2_EEE16__destroy_vectorEEC2B7v160006ES6_, symObjAddr: 0x5FF0, symBinAddr: 0x100007500, symSize: 0x24 }
  - { offsetInCU: 0x16FBF, offset: 0x16FBF, size: 0x8, addend: 0x0, symName: __ZNSt3__16vectorI5pointNS_9allocatorIS1_EEE16__destroy_vectorC2ERS4_, symObjAddr: 0x6014, symBinAddr: 0x100007524, symSize: 0x20 }
  - { offsetInCU: 0x16FF8, offset: 0x16FF8, size: 0x8, addend: 0x0, symName: __ZNKSt3__16vectorI5pointNS_9allocatorIS1_EEE8max_sizeEv, symObjAddr: 0x6034, symBinAddr: 0x100007544, symSize: 0x60 }
  - { offsetInCU: 0x17020, offset: 0x17020, size: 0x8, addend: 0x0, symName: __ZNKSt3__16vectorI5pointNS_9allocatorIS1_EEE20__throw_length_errorB7v160006Ev, symObjAddr: 0x6094, symBinAddr: 0x1000075A4, symSize: 0x1C }
  - { offsetInCU: 0x17046, offset: 0x17046, size: 0x8, addend: 0x0, symName: __ZNSt3__16vectorI5pointNS_9allocatorIS1_EEE7__allocB7v160006Ev, symObjAddr: 0x60F0, symBinAddr: 0x100007600, symSize: 0x28 }
  - { offsetInCU: 0x1706C, offset: 0x1706C, size: 0x8, addend: 0x0, symName: __ZNSt3__16vectorI5pointNS_9allocatorIS1_EEE9__end_capB7v160006Ev, symObjAddr: 0x6118, symBinAddr: 0x100007628, symSize: 0x28 }
  - { offsetInCU: 0x17092, offset: 0x17092, size: 0x8, addend: 0x0, symName: __ZNKSt3__16vectorI5pointNS_9allocatorIS1_EEE14__annotate_newB7v160006Em, symObjAddr: 0x6140, symBinAddr: 0x100007650, symSize: 0xC8 }
  - { offsetInCU: 0x170C7, offset: 0x170C7, size: 0x8, addend: 0x0, symName: __ZNSt3__116allocator_traitsINS_9allocatorI5pointEEE8max_sizeB7v160006IS3_vEEmRKS3_, symObjAddr: 0x6208, symBinAddr: 0x100007718, symSize: 0x24 }
  - { offsetInCU: 0x170F5, offset: 0x170F5, size: 0x8, addend: 0x0, symName: __ZNKSt3__19allocatorI5pointE8max_sizeB7v160006Ev, symObjAddr: 0x622C, symBinAddr: 0x10000773C, symSize: 0x18 }
  - { offsetInCU: 0x1711B, offset: 0x1711B, size: 0x8, addend: 0x0, symName: __ZNSt3__19allocatorI5pointE8allocateB7v160006Em, symObjAddr: 0x6244, symBinAddr: 0x100007754, symSize: 0x5C }
  - { offsetInCU: 0x1714F, offset: 0x1714F, size: 0x8, addend: 0x0, symName: __ZNSt3__117__compressed_pairIP5pointNS_9allocatorIS1_EEE6secondB7v160006Ev, symObjAddr: 0x62A0, symBinAddr: 0x1000077B0, symSize: 0x24 }
  - { offsetInCU: 0x17175, offset: 0x17175, size: 0x8, addend: 0x0, symName: __ZNSt3__122__compressed_pair_elemINS_9allocatorI5pointEELi1ELb1EE5__getB7v160006Ev, symObjAddr: 0x62C4, symBinAddr: 0x1000077D4, symSize: 0x14 }
  - { offsetInCU: 0x1719B, offset: 0x1719B, size: 0x8, addend: 0x0, symName: __ZNSt3__117__compressed_pairIP5pointNS_9allocatorIS1_EEE5firstB7v160006Ev, symObjAddr: 0x62D8, symBinAddr: 0x1000077E8, symSize: 0x24 }
  - { offsetInCU: 0x171C1, offset: 0x171C1, size: 0x8, addend: 0x0, symName: __ZNSt3__122__compressed_pair_elemIP5pointLi0ELb0EE5__getB7v160006Ev, symObjAddr: 0x62FC, symBinAddr: 0x10000780C, symSize: 0x14 }
  - { offsetInCU: 0x171E7, offset: 0x171E7, size: 0x8, addend: 0x0, symName: __ZNKSt3__16vectorI5pointNS_9allocatorIS1_EEE31__annotate_contiguous_containerB7v160006EPKvS6_S6_S6_, symObjAddr: 0x6310, symBinAddr: 0x100007820, symSize: 0x20 }
  - { offsetInCU: 0x17239, offset: 0x17239, size: 0x8, addend: 0x0, symName: __ZNKSt3__16vectorI5pointNS_9allocatorIS1_EEE4dataB7v160006Ev, symObjAddr: 0x6330, symBinAddr: 0x100007840, symSize: 0x28 }
  - { offsetInCU: 0x1725F, offset: 0x1725F, size: 0x8, addend: 0x0, symName: __ZNKSt3__16vectorI5pointNS_9allocatorIS1_EEE8capacityB7v160006Ev, symObjAddr: 0x6358, symBinAddr: 0x100007868, symSize: 0x40 }
  - { offsetInCU: 0x17285, offset: 0x17285, size: 0x8, addend: 0x0, symName: __ZNKSt3__16vectorI5pointNS_9allocatorIS1_EEE9__end_capB7v160006Ev, symObjAddr: 0x63AC, symBinAddr: 0x1000078BC, symSize: 0x28 }
  - { offsetInCU: 0x172AB, offset: 0x172AB, size: 0x8, addend: 0x0, symName: __ZNKSt3__117__compressed_pairIP5pointNS_9allocatorIS1_EEE5firstB7v160006Ev, symObjAddr: 0x63D4, symBinAddr: 0x1000078E4, symSize: 0x24 }
  - { offsetInCU: 0x172D1, offset: 0x172D1, size: 0x8, addend: 0x0, symName: __ZNKSt3__122__compressed_pair_elemIP5pointLi0ELb0EE5__getB7v160006Ev, symObjAddr: 0x63F8, symBinAddr: 0x100007908, symSize: 0x14 }
  - { offsetInCU: 0x17310, offset: 0x17310, size: 0x8, addend: 0x0, symName: __ZNSt3__16vectorI5pointNS_9allocatorIS1_EEE21_ConstructTransactionC1B7v160006ERS4_m, symObjAddr: 0x640C, symBinAddr: 0x10000791C, symSize: 0x3C }
  - { offsetInCU: 0x17358, offset: 0x17358, size: 0x8, addend: 0x0, symName: __ZNSt3__16vectorI5pointNS_9allocatorIS1_EEE21_ConstructTransactionD1B7v160006Ev, symObjAddr: 0x653C, symBinAddr: 0x100007A4C, symSize: 0x2C }
  - { offsetInCU: 0x17382, offset: 0x17382, size: 0x8, addend: 0x0, symName: __ZNSt3__16vectorI5pointNS_9allocatorIS1_EEE21_ConstructTransactionC2B7v160006ERS4_m, symObjAddr: 0x6568, symBinAddr: 0x100007A78, symSize: 0x4C }
  - { offsetInCU: 0x173CA, offset: 0x173CA, size: 0x8, addend: 0x0, symName: __ZNSt3__129_AllocatorDestroyRangeReverseINS_9allocatorI5pointEEPS2_EC1B7v160006ERS3_RS4_S7_, symObjAddr: 0x6600, symBinAddr: 0x100007B10, symSize: 0x44 }
  - { offsetInCU: 0x17421, offset: 0x17421, size: 0x8, addend: 0x0, symName: __ZNSt3__116allocator_traitsINS_9allocatorI5pointEEE9constructB7v160006IS2_JRS2_EvEEvRS3_PT_DpOT0_, symObjAddr: 0x6644, symBinAddr: 0x100007B54, symSize: 0x34 }
  - { offsetInCU: 0x17478, offset: 0x17478, size: 0x8, addend: 0x0, symName: __ZNSt3__128__exception_guard_exceptionsINS_29_AllocatorDestroyRangeReverseINS_9allocatorI5pointEEPS3_EEE10__completeB7v160006Ev, symObjAddr: 0x6678, symBinAddr: 0x100007B88, symSize: 0x1C }
  - { offsetInCU: 0x1749E, offset: 0x1749E, size: 0x8, addend: 0x0, symName: __ZNSt3__128__exception_guard_exceptionsINS_29_AllocatorDestroyRangeReverseINS_9allocatorI5pointEEPS3_EEED1B7v160006Ev, symObjAddr: 0x6694, symBinAddr: 0x100007BA4, symSize: 0x2C }
  - { offsetInCU: 0x174C8, offset: 0x174C8, size: 0x8, addend: 0x0, symName: __ZNSt3__128__exception_guard_exceptionsINS_29_AllocatorDestroyRangeReverseINS_9allocatorI5pointEEPS3_EEEC1B7v160006ES6_, symObjAddr: 0x66C0, symBinAddr: 0x100007BD0, symSize: 0x34 }
  - { offsetInCU: 0x17501, offset: 0x17501, size: 0x8, addend: 0x0, symName: __ZNSt3__128__exception_guard_exceptionsINS_29_AllocatorDestroyRangeReverseINS_9allocatorI5pointEEPS3_EEEC2B7v160006ES6_, symObjAddr: 0x66F4, symBinAddr: 0x100007C04, symSize: 0x30 }
  - { offsetInCU: 0x1753A, offset: 0x1753A, size: 0x8, addend: 0x0, symName: __ZNSt3__129_AllocatorDestroyRangeReverseINS_9allocatorI5pointEEPS2_EC2B7v160006ERS3_RS4_S7_, symObjAddr: 0x6724, symBinAddr: 0x100007C34, symSize: 0x38 }
  - { offsetInCU: 0x17591, offset: 0x17591, size: 0x8, addend: 0x0, symName: __ZNSt3__19allocatorI5pointE9constructB7v160006IS1_JRS1_EEEvPT_DpOT0_, symObjAddr: 0x675C, symBinAddr: 0x100007C6C, symSize: 0x30 }
  - { offsetInCU: 0x175E7, offset: 0x175E7, size: 0x8, addend: 0x0, symName: __ZN5pointC1ERKS_, symObjAddr: 0x678C, symBinAddr: 0x100007C9C, symSize: 0x34 }
  - { offsetInCU: 0x1761C, offset: 0x1761C, size: 0x8, addend: 0x0, symName: __ZN5pointC2ERKS_, symObjAddr: 0x67C0, symBinAddr: 0x100007CD0, symSize: 0x40 }
  - { offsetInCU: 0x17651, offset: 0x17651, size: 0x8, addend: 0x0, symName: __ZNSt3__128__exception_guard_exceptionsINS_29_AllocatorDestroyRangeReverseINS_9allocatorI5pointEEPS3_EEED2B7v160006Ev, symObjAddr: 0x6800, symBinAddr: 0x100007D10, symSize: 0x50 }
  - { offsetInCU: 0x1767B, offset: 0x1767B, size: 0x8, addend: 0x0, symName: __ZNKSt3__129_AllocatorDestroyRangeReverseINS_9allocatorI5pointEEPS2_EclB7v160006Ev, symObjAddr: 0x6850, symBinAddr: 0x100007D60, symSize: 0x68 }
  - { offsetInCU: 0x176A1, offset: 0x176A1, size: 0x8, addend: 0x0, symName: __ZNSt3__116reverse_iteratorIP5pointEC1B7v160006ES2_, symObjAddr: 0x6928, symBinAddr: 0x100007E38, symSize: 0x34 }
  - { offsetInCU: 0x176D9, offset: 0x176D9, size: 0x8, addend: 0x0, symName: __ZNSt3__116allocator_traitsINS_9allocatorI5pointEEE7destroyB7v160006IS2_vEEvRS3_PT_, symObjAddr: 0x69A4, symBinAddr: 0x100007EB4, symSize: 0x2C }
  - { offsetInCU: 0x17716, offset: 0x17716, size: 0x8, addend: 0x0, symName: __ZNSt3__116reverse_iteratorIP5pointEppB7v160006Ev, symObjAddr: 0x69F4, symBinAddr: 0x100007F04, symSize: 0x20 }
  - { offsetInCU: 0x1773C, offset: 0x1773C, size: 0x8, addend: 0x0, symName: __ZNKSt3__116reverse_iteratorIP5pointE4baseB7v160006Ev, symObjAddr: 0x6A14, symBinAddr: 0x100007F24, symSize: 0x18 }
  - { offsetInCU: 0x17762, offset: 0x17762, size: 0x8, addend: 0x0, symName: __ZNSt3__19allocatorI5pointE7destroyB7v160006EPS1_, symObjAddr: 0x6A2C, symBinAddr: 0x100007F3C, symSize: 0x28 }
  - { offsetInCU: 0x1779B, offset: 0x1779B, size: 0x8, addend: 0x0, symName: __ZNSt3__119__to_address_helperINS_16reverse_iteratorIP5pointEEvE6__callB7v160006ERKS4_, symObjAddr: 0x6A54, symBinAddr: 0x100007F64, symSize: 0x38 }
  - { offsetInCU: 0x177BE, offset: 0x177BE, size: 0x8, addend: 0x0, symName: __ZNKSt3__116reverse_iteratorIP5pointEptB7v160006Ev, symObjAddr: 0x6A8C, symBinAddr: 0x100007F9C, symSize: 0x24 }
  - { offsetInCU: 0x177E4, offset: 0x177E4, size: 0x8, addend: 0x0, symName: __ZNKSt3__116reverse_iteratorIP5pointEdeB7v160006Ev, symObjAddr: 0x6AB0, symBinAddr: 0x100007FC0, symSize: 0x28 }
  - { offsetInCU: 0x17818, offset: 0x17818, size: 0x8, addend: 0x0, symName: __ZNSt3__116reverse_iteratorIP5pointEC2B7v160006ES2_, symObjAddr: 0x6AD8, symBinAddr: 0x100007FE8, symSize: 0x28 }
  - { offsetInCU: 0x17850, offset: 0x17850, size: 0x8, addend: 0x0, symName: __ZNSt3__16vectorI5pointNS_9allocatorIS1_EEE21_ConstructTransactionD2B7v160006Ev, symObjAddr: 0x6B00, symBinAddr: 0x100008010, symSize: 0x20 }
  - { offsetInCU: 0x1787A, offset: 0x1787A, size: 0x8, addend: 0x0, symName: __ZNSt3__128__exception_guard_exceptionsINS_6vectorI5pointNS_9allocatorIS2_EEE16__destroy_vectorEED2B7v160006Ev, symObjAddr: 0x6B20, symBinAddr: 0x100008030, symSize: 0x50 }
  - { offsetInCU: 0x178A4, offset: 0x178A4, size: 0x8, addend: 0x0, symName: __ZNSt3__16vectorI5pointNS_9allocatorIS1_EEE16__destroy_vectorclB7v160006Ev, symObjAddr: 0x6B70, symBinAddr: 0x100008080, symSize: 0x9C }
  - { offsetInCU: 0x178CA, offset: 0x178CA, size: 0x8, addend: 0x0, symName: __ZNKSt3__16vectorI5pointNS_9allocatorIS1_EEE17__annotate_deleteB7v160006Ev, symObjAddr: 0x6C0C, symBinAddr: 0x10000811C, symSize: 0xD4 }
  - { offsetInCU: 0x178F0, offset: 0x178F0, size: 0x8, addend: 0x0, symName: __ZNSt3__16vectorI5pointNS_9allocatorIS1_EEE7__clearB7v160006Ev, symObjAddr: 0x6CF0, symBinAddr: 0x100008200, symSize: 0x28 }
  - { offsetInCU: 0x17916, offset: 0x17916, size: 0x8, addend: 0x0, symName: __ZNSt3__116allocator_traitsINS_9allocatorI5pointEEE10deallocateB7v160006ERS3_PS2_m, symObjAddr: 0x6D18, symBinAddr: 0x100008228, symSize: 0x34 }
  - { offsetInCU: 0x17958, offset: 0x17958, size: 0x8, addend: 0x0, symName: __ZNSt3__16vectorI5pointNS_9allocatorIS1_EEE22__base_destruct_at_endB7v160006EPS1_, symObjAddr: 0x6D4C, symBinAddr: 0x10000825C, symSize: 0x8C }
  - { offsetInCU: 0x1799C, offset: 0x1799C, size: 0x8, addend: 0x0, symName: __ZNSt3__19allocatorI5pointE10deallocateB7v160006EPS1_m, symObjAddr: 0x6DD8, symBinAddr: 0x1000082E8, symSize: 0x44 }
  - { offsetInCU: 0x179DE, offset: 0x179DE, size: 0x8, addend: 0x0, symName: __ZNSt3__16vectorI5pointNS_9allocatorIS1_EEED2B7v160006Ev, symObjAddr: 0x6E1C, symBinAddr: 0x10000832C, symSize: 0x44 }
  - { offsetInCU: 0x17A08, offset: 0x17A08, size: 0x8, addend: 0x0, symName: __ZNSt3__16vectorI5pointNS_9allocatorIS1_EEE22__construct_one_at_endB7v160006IJRKS1_EEEvDpOT_, symObjAddr: 0x6E60, symBinAddr: 0x100008370, symSize: 0x90 }
  - { offsetInCU: 0x17A57, offset: 0x17A57, size: 0x8, addend: 0x0, symName: __ZNSt3__16vectorI5pointNS_9allocatorIS1_EEE21__push_back_slow_pathIRKS1_EEvOT_, symObjAddr: 0x6EF0, symBinAddr: 0x100008400, symSize: 0xD8 }
  - { offsetInCU: 0x17AB5, offset: 0x17AB5, size: 0x8, addend: 0x0, symName: __ZNSt3__116allocator_traitsINS_9allocatorI5pointEEE9constructB7v160006IS2_JRKS2_EvEEvRS3_PT_DpOT0_, symObjAddr: 0x6FC8, symBinAddr: 0x1000084D8, symSize: 0x34 }
  - { offsetInCU: 0x17B0C, offset: 0x17B0C, size: 0x8, addend: 0x0, symName: __ZNSt3__19allocatorI5pointE9constructB7v160006IS1_JRKS1_EEEvPT_DpOT0_, symObjAddr: 0x6FFC, symBinAddr: 0x10000850C, symSize: 0x30 }
  - { offsetInCU: 0x17B62, offset: 0x17B62, size: 0x8, addend: 0x0, symName: __ZNKSt3__16vectorI5pointNS_9allocatorIS1_EEE11__recommendB7v160006Em, symObjAddr: 0x702C, symBinAddr: 0x10000853C, symSize: 0xB4 }
  - { offsetInCU: 0x17BB7, offset: 0x17BB7, size: 0x8, addend: 0x0, symName: __ZNSt3__114__split_bufferI5pointRNS_9allocatorIS1_EEEC1EmmS4_, symObjAddr: 0x70E0, symBinAddr: 0x1000085F0, symSize: 0x44 }
  - { offsetInCU: 0x17C0D, offset: 0x17C0D, size: 0x8, addend: 0x0, symName: __ZNSt3__114__split_bufferI5pointRNS_9allocatorIS1_EEED1Ev, symObjAddr: 0x723C, symBinAddr: 0x10000874C, symSize: 0x2C }
  - { offsetInCU: 0x17C39, offset: 0x17C39, size: 0x8, addend: 0x0, symName: __ZNSt3__114__split_bufferI5pointRNS_9allocatorIS1_EEEC2EmmS4_, symObjAddr: 0x7268, symBinAddr: 0x100008778, symSize: 0xE0 }
  - { offsetInCU: 0x17CAD, offset: 0x17CAD, size: 0x8, addend: 0x0, symName: __ZNSt3__117__compressed_pairIP5pointRNS_9allocatorIS1_EEEC1B7v160006IDnS5_EEOT_OT0_, symObjAddr: 0x7348, symBinAddr: 0x100008858, symSize: 0x3C }
  - { offsetInCU: 0x17D05, offset: 0x17D05, size: 0x8, addend: 0x0, symName: __ZNSt3__114__split_bufferI5pointRNS_9allocatorIS1_EEE7__allocB7v160006Ev, symObjAddr: 0x7384, symBinAddr: 0x100008894, symSize: 0x28 }
  - { offsetInCU: 0x17D2B, offset: 0x17D2B, size: 0x8, addend: 0x0, symName: __ZNSt3__114__split_bufferI5pointRNS_9allocatorIS1_EEE9__end_capB7v160006Ev, symObjAddr: 0x73AC, symBinAddr: 0x1000088BC, symSize: 0x28 }
  - { offsetInCU: 0x17D51, offset: 0x17D51, size: 0x8, addend: 0x0, symName: __ZNSt3__117__compressed_pairIP5pointRNS_9allocatorIS1_EEEC2B7v160006IDnS5_EEOT_OT0_, symObjAddr: 0x73D4, symBinAddr: 0x1000088E4, symSize: 0x48 }
  - { offsetInCU: 0x17DA9, offset: 0x17DA9, size: 0x8, addend: 0x0, symName: __ZNSt3__122__compressed_pair_elemIRNS_9allocatorI5pointEELi1ELb0EEC2B7v160006IS4_vEEOT_, symObjAddr: 0x741C, symBinAddr: 0x10000892C, symSize: 0x20 }
  - { offsetInCU: 0x17DEB, offset: 0x17DEB, size: 0x8, addend: 0x0, symName: __ZNSt3__117__compressed_pairIP5pointRNS_9allocatorIS1_EEE6secondB7v160006Ev, symObjAddr: 0x743C, symBinAddr: 0x10000894C, symSize: 0x28 }
  - { offsetInCU: 0x17E11, offset: 0x17E11, size: 0x8, addend: 0x0, symName: __ZNSt3__122__compressed_pair_elemIRNS_9allocatorI5pointEELi1ELb0EE5__getB7v160006Ev, symObjAddr: 0x7464, symBinAddr: 0x100008974, symSize: 0x18 }
  - { offsetInCU: 0x17E37, offset: 0x17E37, size: 0x8, addend: 0x0, symName: __ZNSt3__117__compressed_pairIP5pointRNS_9allocatorIS1_EEE5firstB7v160006Ev, symObjAddr: 0x747C, symBinAddr: 0x10000898C, symSize: 0x24 }
  - { offsetInCU: 0x17E5D, offset: 0x17E5D, size: 0x8, addend: 0x0, symName: __ZNSt3__129_AllocatorDestroyRangeReverseINS_9allocatorI5pointEENS_16reverse_iteratorIPS2_EEEC1B7v160006ERS3_RS6_S9_, symObjAddr: 0x7654, symBinAddr: 0x100008B64, symSize: 0x44 }
  - { offsetInCU: 0x17EB9, offset: 0x17EB9, size: 0x8, addend: 0x0, symName: __ZNSt3__116allocator_traitsINS_9allocatorI5pointEEE9constructB7v160006IS2_JS2_EvEEvRS3_PT_DpOT0_, symObjAddr: 0x7698, symBinAddr: 0x100008BA8, symSize: 0x34 }
  - { offsetInCU: 0x17F10, offset: 0x17F10, size: 0x8, addend: 0x0, symName: __ZNSt3__128__exception_guard_exceptionsINS_29_AllocatorDestroyRangeReverseINS_9allocatorI5pointEENS_16reverse_iteratorIPS3_EEEEE10__completeB7v160006Ev, symObjAddr: 0x76CC, symBinAddr: 0x100008BDC, symSize: 0x1C }
  - { offsetInCU: 0x17F36, offset: 0x17F36, size: 0x8, addend: 0x0, symName: __ZNSt3__128__exception_guard_exceptionsINS_29_AllocatorDestroyRangeReverseINS_9allocatorI5pointEENS_16reverse_iteratorIPS3_EEEEED1B7v160006Ev, symObjAddr: 0x76E8, symBinAddr: 0x100008BF8, symSize: 0x2C }
  - { offsetInCU: 0x17F60, offset: 0x17F60, size: 0x8, addend: 0x0, symName: __ZNSt3__128__exception_guard_exceptionsINS_29_AllocatorDestroyRangeReverseINS_9allocatorI5pointEENS_16reverse_iteratorIPS3_EEEEEC1B7v160006ES8_, symObjAddr: 0x7714, symBinAddr: 0x100008C24, symSize: 0x34 }
  - { offsetInCU: 0x17F99, offset: 0x17F99, size: 0x8, addend: 0x0, symName: __ZNSt3__128__exception_guard_exceptionsINS_29_AllocatorDestroyRangeReverseINS_9allocatorI5pointEENS_16reverse_iteratorIPS3_EEEEEC2B7v160006ES8_, symObjAddr: 0x7748, symBinAddr: 0x100008C58, symSize: 0x30 }
  - { offsetInCU: 0x17FD2, offset: 0x17FD2, size: 0x8, addend: 0x0, symName: __ZNSt3__129_AllocatorDestroyRangeReverseINS_9allocatorI5pointEENS_16reverse_iteratorIPS2_EEEC2B7v160006ERS3_RS6_S9_, symObjAddr: 0x7778, symBinAddr: 0x100008C88, symSize: 0x38 }
  - { offsetInCU: 0x18029, offset: 0x18029, size: 0x8, addend: 0x0, symName: __ZNSt3__19allocatorI5pointE9constructB7v160006IS1_JS1_EEEvPT_DpOT0_, symObjAddr: 0x77B0, symBinAddr: 0x100008CC0, symSize: 0x30 }
  - { offsetInCU: 0x1807F, offset: 0x1807F, size: 0x8, addend: 0x0, symName: __ZN5pointC1EOS_, symObjAddr: 0x77E0, symBinAddr: 0x100008CF0, symSize: 0x34 }
  - { offsetInCU: 0x180B4, offset: 0x180B4, size: 0x8, addend: 0x0, symName: __ZN5pointC2EOS_, symObjAddr: 0x7814, symBinAddr: 0x100008D24, symSize: 0x40 }
  - { offsetInCU: 0x180E9, offset: 0x180E9, size: 0x8, addend: 0x0, symName: __ZNSt3__16vectorIdNS_9allocatorIdEEEC1B7v160006EOS3_, symObjAddr: 0x7854, symBinAddr: 0x100008D64, symSize: 0x34 }
  - { offsetInCU: 0x18124, offset: 0x18124, size: 0x8, addend: 0x0, symName: __ZNSt3__16vectorIdNS_9allocatorIdEEEC2B7v160006EOS3_, symObjAddr: 0x7888, symBinAddr: 0x100008D98, symSize: 0xDC }
  - { offsetInCU: 0x1815F, offset: 0x1815F, size: 0x8, addend: 0x0, symName: __ZNSt3__128__exception_guard_exceptionsINS_29_AllocatorDestroyRangeReverseINS_9allocatorI5pointEENS_16reverse_iteratorIPS3_EEEEED2B7v160006Ev, symObjAddr: 0x7978, symBinAddr: 0x100008E88, symSize: 0x50 }
  - { offsetInCU: 0x18189, offset: 0x18189, size: 0x8, addend: 0x0, symName: __ZNKSt3__129_AllocatorDestroyRangeReverseINS_9allocatorI5pointEENS_16reverse_iteratorIPS2_EEEclB7v160006Ev, symObjAddr: 0x79C8, symBinAddr: 0x100008ED8, symSize: 0xB4 }
  - { offsetInCU: 0x181B0, offset: 0x181B0, size: 0x8, addend: 0x0, symName: __ZNSt3__116reverse_iteratorINS0_IP5pointEEEC1B7v160006ES3_, symObjAddr: 0x7AEC, symBinAddr: 0x100008FFC, symSize: 0x3C }
  - { offsetInCU: 0x181E8, offset: 0x181E8, size: 0x8, addend: 0x0, symName: __ZNSt3__116reverse_iteratorINS0_IP5pointEEEppB7v160006Ev, symObjAddr: 0x7BAC, symBinAddr: 0x1000090BC, symSize: 0x30 }
  - { offsetInCU: 0x1820E, offset: 0x1820E, size: 0x8, addend: 0x0, symName: __ZNKSt3__116reverse_iteratorINS0_IP5pointEEE4baseB7v160006Ev, symObjAddr: 0x7BDC, symBinAddr: 0x1000090EC, symSize: 0x24 }
  - { offsetInCU: 0x18239, offset: 0x18239, size: 0x8, addend: 0x0, symName: __ZNSt3__119__to_address_helperINS_16reverse_iteratorINS1_IP5pointEEEEvE6__callB7v160006ERKS5_, symObjAddr: 0x7C00, symBinAddr: 0x100009110, symSize: 0x38 }
  - { offsetInCU: 0x1825C, offset: 0x1825C, size: 0x8, addend: 0x0, symName: __ZNKSt3__116reverse_iteratorINS0_IP5pointEEEptB7v160006Ev, symObjAddr: 0x7C38, symBinAddr: 0x100009148, symSize: 0x24 }
  - { offsetInCU: 0x18282, offset: 0x18282, size: 0x8, addend: 0x0, symName: __ZNKSt3__116reverse_iteratorINS0_IP5pointEEEdeB7v160006Ev, symObjAddr: 0x7C5C, symBinAddr: 0x10000916C, symSize: 0x34 }
  - { offsetInCU: 0x182B6, offset: 0x182B6, size: 0x8, addend: 0x0, symName: __ZNSt3__116reverse_iteratorIP5pointEmmB7v160006Ev, symObjAddr: 0x7C90, symBinAddr: 0x1000091A0, symSize: 0x20 }
  - { offsetInCU: 0x182DC, offset: 0x182DC, size: 0x8, addend: 0x0, symName: __ZNSt3__116reverse_iteratorINS0_IP5pointEEEC2B7v160006ES3_, symObjAddr: 0x7CB0, symBinAddr: 0x1000091C0, symSize: 0x2C }
  - { offsetInCU: 0x18314, offset: 0x18314, size: 0x8, addend: 0x0, symName: __ZNSt3__114__split_bufferI5pointRNS_9allocatorIS1_EEED2Ev, symObjAddr: 0x7CDC, symBinAddr: 0x1000091EC, symSize: 0x8C }
  - { offsetInCU: 0x18340, offset: 0x18340, size: 0x8, addend: 0x0, symName: __ZNSt3__114__split_bufferI5pointRNS_9allocatorIS1_EEE5clearB7v160006Ev, symObjAddr: 0x7D68, symBinAddr: 0x100009278, symSize: 0x28 }
  - { offsetInCU: 0x18366, offset: 0x18366, size: 0x8, addend: 0x0, symName: __ZNKSt3__114__split_bufferI5pointRNS_9allocatorIS1_EEE8capacityB7v160006Ev, symObjAddr: 0x7D90, symBinAddr: 0x1000092A0, symSize: 0x40 }
  - { offsetInCU: 0x1838C, offset: 0x1838C, size: 0x8, addend: 0x0, symName: __ZNSt3__114__split_bufferI5pointRNS_9allocatorIS1_EEE17__destruct_at_endB7v160006EPS1_, symObjAddr: 0x7DD0, symBinAddr: 0x1000092E0, symSize: 0x2C }
  - { offsetInCU: 0x183C0, offset: 0x183C0, size: 0x8, addend: 0x0, symName: __ZNSt3__114__split_bufferI5pointRNS_9allocatorIS1_EEE17__destruct_at_endB7v160006EPS1_NS_17integral_constantIbLb0EEE, symObjAddr: 0x7DFC, symBinAddr: 0x10000930C, symSize: 0x80 }
  - { offsetInCU: 0x18400, offset: 0x18400, size: 0x8, addend: 0x0, symName: __ZNKSt3__114__split_bufferI5pointRNS_9allocatorIS1_EEE9__end_capB7v160006Ev, symObjAddr: 0x7E7C, symBinAddr: 0x10000938C, symSize: 0x28 }
  - { offsetInCU: 0x18426, offset: 0x18426, size: 0x8, addend: 0x0, symName: __ZNKSt3__117__compressed_pairIP5pointRNS_9allocatorIS1_EEE5firstB7v160006Ev, symObjAddr: 0x7EA4, symBinAddr: 0x1000093B4, symSize: 0x24 }
  - { offsetInCU: 0x1844C, offset: 0x1844C, size: 0x8, addend: 0x0, symName: __ZNSt3__16vectorI5pointNS_9allocatorIS1_EEEC2B7v160006Ev, symObjAddr: 0x7EC8, symBinAddr: 0x1000093D8, symSize: 0x54 }
  - { offsetInCU: 0x18476, offset: 0x18476, size: 0x8, addend: 0x0, symName: __ZNSt3__117__compressed_pairIP5pointNS_9allocatorIS1_EEEC1B7v160006IDnNS_18__default_init_tagEEEOT_OT0_, symObjAddr: 0x7F1C, symBinAddr: 0x10000942C, symSize: 0x3C }
  - { offsetInCU: 0x184CE, offset: 0x184CE, size: 0x8, addend: 0x0, symName: __ZNSt3__117__compressed_pairIP5pointNS_9allocatorIS1_EEEC2B7v160006IDnNS_18__default_init_tagEEEOT_OT0_, symObjAddr: 0x7F58, symBinAddr: 0x100009468, symSize: 0x40 }
  - { offsetInCU: 0x18526, offset: 0x18526, size: 0x8, addend: 0x0, symName: __ZNSt3__122__compressed_pair_elemINS_9allocatorI5pointEELi1ELb1EEC2B7v160006ENS_18__default_init_tagE, symObjAddr: 0x7F98, symBinAddr: 0x1000094A8, symSize: 0x2C }
  - { offsetInCU: 0x1855A, offset: 0x1855A, size: 0x8, addend: 0x0, symName: __ZNSt3__19allocatorI5pointEC2B7v160006Ev, symObjAddr: 0x7FC4, symBinAddr: 0x1000094D4, symSize: 0x2C }
  - { offsetInCU: 0x18584, offset: 0x18584, size: 0x8, addend: 0x0, symName: __ZNSt3__116__non_trivial_ifILb1ENS_9allocatorI5pointEEEC2B7v160006Ev, symObjAddr: 0x7FF0, symBinAddr: 0x100009500, symSize: 0x14 }
  - { offsetInCU: 0x185AE, offset: 0x185AE, size: 0x8, addend: 0x0, symName: __ZNSt3__19basic_iosIcNS_11char_traitsIcEEEC2B7v160006Ev, symObjAddr: 0x8004, symBinAddr: 0x100009514, symSize: 0x44 }
  - { offsetInCU: 0x185D8, offset: 0x185D8, size: 0x8, addend: 0x0, symName: __ZNSt3__113basic_istreamIcNS_11char_traitsIcEEEC2B7v160006EPNS_15basic_streambufIcS2_EE, symObjAddr: 0x8048, symBinAddr: 0x100009558, symSize: 0x64 }
  - { offsetInCU: 0x1861D, offset: 0x1861D, size: 0x8, addend: 0x0, symName: __ZNSt3__113basic_filebufIcNS_11char_traitsIcEEE4openERKNS_12basic_stringIcS2_NS_9allocatorIcEEEEj, symObjAddr: 0x80AC, symBinAddr: 0x1000095BC, symSize: 0x44 }
  - { offsetInCU: 0x18661, offset: 0x18661, size: 0x8, addend: 0x0, symName: __ZNSt3__19basic_iosIcNS_11char_traitsIcEEE8setstateB7v160006Ej, symObjAddr: 0x80F0, symBinAddr: 0x100009600, symSize: 0x2C }
  - { offsetInCU: 0x18696, offset: 0x18696, size: 0x8, addend: 0x0, symName: __ZNSt3__18ios_baseC2B7v160006Ev, symObjAddr: 0x811C, symBinAddr: 0x10000962C, symSize: 0x24 }
  - { offsetInCU: 0x186C0, offset: 0x186C0, size: 0x8, addend: 0x0, symName: __ZNSt3__19basic_iosIcNS_11char_traitsIcEEE4initB7v160006EPNS_15basic_streambufIcS2_EE, symObjAddr: 0x8140, symBinAddr: 0x100009650, symSize: 0x44 }
  - { offsetInCU: 0x186F7, offset: 0x186F7, size: 0x8, addend: 0x0, symName: __ZNSt3__111char_traitsIcE3eofEv, symObjAddr: 0x8184, symBinAddr: 0x100009694, symSize: 0x8 }
  - { offsetInCU: 0x1870B, offset: 0x1870B, size: 0x8, addend: 0x0, symName: __ZNKSt3__112basic_stringIcNS_11char_traitsIcEENS_9allocatorIcEEE5c_strB7v160006Ev, symObjAddr: 0x818C, symBinAddr: 0x10000969C, symSize: 0x24 }
  - { offsetInCU: 0x18731, offset: 0x18731, size: 0x8, addend: 0x0, symName: __ZNKSt3__112basic_stringIcNS_11char_traitsIcEENS_9allocatorIcEEE4dataB7v160006Ev, symObjAddr: 0x81B0, symBinAddr: 0x1000096C0, symSize: 0x28 }
  - { offsetInCU: 0x18757, offset: 0x18757, size: 0x8, addend: 0x0, symName: __ZNKSt3__112basic_stringIcNS_11char_traitsIcEENS_9allocatorIcEEE13__get_pointerB7v160006Ev, symObjAddr: 0x81EC, symBinAddr: 0x1000096FC, symSize: 0x54 }
  - { offsetInCU: 0x1877D, offset: 0x1877D, size: 0x8, addend: 0x0, symName: __ZNKSt3__112basic_stringIcNS_11char_traitsIcEENS_9allocatorIcEEE9__is_longB7v160006Ev, symObjAddr: 0x8240, symBinAddr: 0x100009750, symSize: 0x38 }
  - { offsetInCU: 0x187A3, offset: 0x187A3, size: 0x8, addend: 0x0, symName: __ZNKSt3__112basic_stringIcNS_11char_traitsIcEENS_9allocatorIcEEE18__get_long_pointerB7v160006Ev, symObjAddr: 0x8278, symBinAddr: 0x100009788, symSize: 0x28 }
  - { offsetInCU: 0x187C9, offset: 0x187C9, size: 0x8, addend: 0x0, symName: __ZNKSt3__112basic_stringIcNS_11char_traitsIcEENS_9allocatorIcEEE19__get_short_pointerB7v160006Ev, symObjAddr: 0x82A0, symBinAddr: 0x1000097B0, symSize: 0x28 }
  - { offsetInCU: 0x187EF, offset: 0x187EF, size: 0x8, addend: 0x0, symName: __ZNKSt3__117__compressed_pairINS_12basic_stringIcNS_11char_traitsIcEENS_9allocatorIcEEE5__repES5_E5firstB7v160006Ev, symObjAddr: 0x82C8, symBinAddr: 0x1000097D8, symSize: 0x24 }
  - { offsetInCU: 0x18815, offset: 0x18815, size: 0x8, addend: 0x0, symName: __ZNKSt3__122__compressed_pair_elemINS_12basic_stringIcNS_11char_traitsIcEENS_9allocatorIcEEE5__repELi0ELb0EE5__getB7v160006Ev, symObjAddr: 0x82EC, symBinAddr: 0x1000097FC, symSize: 0x14 }
  - { offsetInCU: 0x1883B, offset: 0x1883B, size: 0x8, addend: 0x0, symName: __ZNSt3__114pointer_traitsIPKcE10pointer_toB7v160006ERS1_, symObjAddr: 0x8300, symBinAddr: 0x100009810, symSize: 0x14 }
  - { offsetInCU: 0x1885E, offset: 0x1885E, size: 0x8, addend: 0x0, symName: __ZNSt3__18ios_base8setstateB7v160006Ej, symObjAddr: 0x8314, symBinAddr: 0x100009824, symSize: 0x34 }
  - { offsetInCU: 0x18895, offset: 0x18895, size: 0x8, addend: 0x0, symName: __ZNKSt3__19basic_iosIcNS_11char_traitsIcEEE5widenB7v160006Ec, symObjAddr: 0x8348, symBinAddr: 0x100009858, symSize: 0x84 }
  - { offsetInCU: 0x188FE, offset: 0x188FE, size: 0x8, addend: 0x0, symName: __ZNKSt3__15ctypeIcE5widenB7v160006Ec, symObjAddr: 0x83F8, symBinAddr: 0x100009908, symSize: 0x38 }
  - { offsetInCU: 0x18933, offset: 0x18933, size: 0x8, addend: 0x0, symName: __ZNKSt3__19basic_iosIcNS_11char_traitsIcEEE4failB7v160006Ev, symObjAddr: 0x8430, symBinAddr: 0x100009940, symSize: 0x28 }
  - { offsetInCU: 0x18959, offset: 0x18959, size: 0x8, addend: 0x0, symName: __ZNKSt3__18ios_base4failB7v160006Ev, symObjAddr: 0x8458, symBinAddr: 0x100009968, symSize: 0x28 }
  - { offsetInCU: 0x18981, offset: 0x18981, size: 0x8, addend: 0x0, symName: __ZNSt3__114basic_iostreamIcNS_11char_traitsIcEEEC2B7v160006EPNS_15basic_streambufIcS2_EE, symObjAddr: 0x8480, symBinAddr: 0x100009990, symSize: 0xAC }
  - { offsetInCU: 0x189C7, offset: 0x189C7, size: 0x8, addend: 0x0, symName: __ZNSt3__115basic_stringbufIcNS_11char_traitsIcEENS_9allocatorIcEEEC1B7v160006ERKNS_12basic_stringIcS2_S4_EEj, symObjAddr: 0x852C, symBinAddr: 0x100009A3C, symSize: 0x3C }
  - { offsetInCU: 0x18A0D, offset: 0x18A0D, size: 0x8, addend: 0x0, symName: __ZNSt3__113basic_ostreamIcNS_11char_traitsIcEEEC2B7v160006Ev, symObjAddr: 0x8568, symBinAddr: 0x100009A78, symSize: 0x34 }
  - { offsetInCU: 0x18A44, offset: 0x18A44, size: 0x8, addend: 0x0, symName: __ZNSt3__115basic_stringbufIcNS_11char_traitsIcEENS_9allocatorIcEEEC2B7v160006ERKNS_12basic_stringIcS2_S4_EEj, symObjAddr: 0x859C, symBinAddr: 0x100009AAC, symSize: 0xB4 }
  - { offsetInCU: 0x18A8A, offset: 0x18A8A, size: 0x8, addend: 0x0, symName: __ZNKSt3__112basic_stringIcNS_11char_traitsIcEENS_9allocatorIcEEE13get_allocatorB7v160006Ev, symObjAddr: 0x8650, symBinAddr: 0x100009B60, symSize: 0x24 }
  - { offsetInCU: 0x18AB0, offset: 0x18AB0, size: 0x8, addend: 0x0, symName: __ZNSt3__112basic_stringIcNS_11char_traitsIcEENS_9allocatorIcEEEC1B7v160006ERKS4_, symObjAddr: 0x8674, symBinAddr: 0x100009B84, symSize: 0x34 }
  - { offsetInCU: 0x18AE9, offset: 0x18AE9, size: 0x8, addend: 0x0, symName: __ZNKSt3__112basic_stringIcNS_11char_traitsIcEENS_9allocatorIcEEE7__allocB7v160006Ev, symObjAddr: 0x86A8, symBinAddr: 0x100009BB8, symSize: 0x24 }
  - { offsetInCU: 0x18B0F, offset: 0x18B0F, size: 0x8, addend: 0x0, symName: __ZNKSt3__117__compressed_pairINS_12basic_stringIcNS_11char_traitsIcEENS_9allocatorIcEEE5__repES5_E6secondB7v160006Ev, symObjAddr: 0x86CC, symBinAddr: 0x100009BDC, symSize: 0x24 }
  - { offsetInCU: 0x18B35, offset: 0x18B35, size: 0x8, addend: 0x0, symName: __ZNKSt3__122__compressed_pair_elemINS_9allocatorIcEELi1ELb1EE5__getB7v160006Ev, symObjAddr: 0x86F0, symBinAddr: 0x100009C00, symSize: 0x14 }
  - { offsetInCU: 0x18B5B, offset: 0x18B5B, size: 0x8, addend: 0x0, symName: __ZNSt3__112basic_stringIcNS_11char_traitsIcEENS_9allocatorIcEEEC2B7v160006ERKS4_, symObjAddr: 0x8704, symBinAddr: 0x100009C14, symSize: 0x50 }
  - { offsetInCU: 0x18B94, offset: 0x18B94, size: 0x8, addend: 0x0, symName: __ZNSt3__117__compressed_pairINS_12basic_stringIcNS_11char_traitsIcEENS_9allocatorIcEEE5__repES5_EC1B7v160006INS_18__default_init_tagERKS5_EEOT_OT0_, symObjAddr: 0x8754, symBinAddr: 0x100009C64, symSize: 0x3C }
  - { offsetInCU: 0x18BEC, offset: 0x18BEC, size: 0x8, addend: 0x0, symName: __ZNSt3__117__compressed_pairINS_12basic_stringIcNS_11char_traitsIcEENS_9allocatorIcEEE5__repES5_EC2B7v160006INS_18__default_init_tagERKS5_EEOT_OT0_, symObjAddr: 0x8790, symBinAddr: 0x100009CA0, symSize: 0x40 }
  - { offsetInCU: 0x18C44, offset: 0x18C44, size: 0x8, addend: 0x0, symName: __ZNSt3__122__compressed_pair_elemINS_9allocatorIcEELi1ELb1EEC2B7v160006IRKS2_vEEOT_, symObjAddr: 0x87D0, symBinAddr: 0x100009CE0, symSize: 0x18 }
  - { offsetInCU: 0x18C86, offset: 0x18C86, size: 0x8, addend: 0x0, symName: __ZNSt3__16vectorIdNS_9allocatorIdEEEC2B7v160006Ev, symObjAddr: 0x87E8, symBinAddr: 0x100009CF8, symSize: 0x54 }
  - { offsetInCU: 0x18CB0, offset: 0x18CB0, size: 0x8, addend: 0x0, symName: __ZNSt3__117__compressed_pairIPdNS_9allocatorIdEEEC1B7v160006IDnNS_18__default_init_tagEEEOT_OT0_, symObjAddr: 0x883C, symBinAddr: 0x100009D4C, symSize: 0x3C }
  - { offsetInCU: 0x18D08, offset: 0x18D08, size: 0x8, addend: 0x0, symName: __ZNSt3__117__compressed_pairIPdNS_9allocatorIdEEEC2B7v160006IDnNS_18__default_init_tagEEEOT_OT0_, symObjAddr: 0x8878, symBinAddr: 0x100009D88, symSize: 0x40 }
  - { offsetInCU: 0x18D60, offset: 0x18D60, size: 0x8, addend: 0x0, symName: __ZNSt3__122__compressed_pair_elemINS_9allocatorIdEELi1ELb1EEC2B7v160006ENS_18__default_init_tagE, symObjAddr: 0x88B8, symBinAddr: 0x100009DC8, symSize: 0x2C }
  - { offsetInCU: 0x18D94, offset: 0x18D94, size: 0x8, addend: 0x0, symName: __ZNSt3__19allocatorIdEC2B7v160006Ev, symObjAddr: 0x88E4, symBinAddr: 0x100009DF4, symSize: 0x2C }
  - { offsetInCU: 0x18DBE, offset: 0x18DBE, size: 0x8, addend: 0x0, symName: __ZNSt3__116__non_trivial_ifILb1ENS_9allocatorIdEEEC2B7v160006Ev, symObjAddr: 0x8910, symBinAddr: 0x100009E20, symSize: 0x14 }
  - { offsetInCU: 0x18E06, offset: 0x18E06, size: 0x8, addend: 0x0, symName: __ZNKSt3__113basic_istreamIcNS_11char_traitsIcEEE6sentrycvbB7v160006Ev, symObjAddr: 0x8924, symBinAddr: 0x100009E34, symSize: 0x1C }
  - { offsetInCU: 0x18E2C, offset: 0x18E2C, size: 0x8, addend: 0x0, symName: __ZNSt3__112basic_stringIcNS_11char_traitsIcEENS_9allocatorIcEEE5clearB7v160006Ev, symObjAddr: 0x8940, symBinAddr: 0x100009E50, symSize: 0x88 }
  - { offsetInCU: 0x18E54, offset: 0x18E54, size: 0x8, addend: 0x0, symName: __ZNKSt3__19basic_iosIcNS_11char_traitsIcEEE5rdbufB7v160006Ev, symObjAddr: 0x89C8, symBinAddr: 0x100009ED8, symSize: 0x24 }
  - { offsetInCU: 0x18E7C, offset: 0x18E7C, size: 0x8, addend: 0x0, symName: __ZNSt3__115basic_streambufIcNS_11char_traitsIcEEE6sbumpcB7v160006Ev, symObjAddr: 0x89EC, symBinAddr: 0x100009EFC, symSize: 0x78 }
  - { offsetInCU: 0x18EA2, offset: 0x18EA2, size: 0x8, addend: 0x0, symName: __ZNSt3__111char_traitsIcE11eq_int_typeEii, symObjAddr: 0x8A64, symBinAddr: 0x100009F74, symSize: 0x28 }
  - { offsetInCU: 0x18ED3, offset: 0x18ED3, size: 0x8, addend: 0x0, symName: __ZNSt3__111char_traitsIcE12to_char_typeEi, symObjAddr: 0x8A8C, symBinAddr: 0x100009F9C, symSize: 0x18 }
  - { offsetInCU: 0x18EF6, offset: 0x18EF6, size: 0x8, addend: 0x0, symName: __ZNSt3__111char_traitsIcE2eqEcc, symObjAddr: 0x8AA4, symBinAddr: 0x100009FB4, symSize: 0x28 }
  - { offsetInCU: 0x18F27, offset: 0x18F27, size: 0x8, addend: 0x0, symName: __ZNKSt3__112basic_stringIcNS_11char_traitsIcEENS_9allocatorIcEEE4sizeB7v160006Ev, symObjAddr: 0x8ACC, symBinAddr: 0x100009FDC, symSize: 0x54 }
  - { offsetInCU: 0x18F4D, offset: 0x18F4D, size: 0x8, addend: 0x0, symName: __ZNKSt3__112basic_stringIcNS_11char_traitsIcEENS_9allocatorIcEEE8max_sizeB7v160006Ev, symObjAddr: 0x8B20, symBinAddr: 0x10000A030, symSize: 0xAC }
  - { offsetInCU: 0x18FA0, offset: 0x18FA0, size: 0x8, addend: 0x0, symName: __ZNSt3__18ios_base18__setstate_nothrowB7v160006Ej, symObjAddr: 0x8BCC, symBinAddr: 0x10000A0DC, symSize: 0x64 }
  - { offsetInCU: 0x18FD5, offset: 0x18FD5, size: 0x8, addend: 0x0, symName: __ZNKSt3__19basic_iosIcNS_11char_traitsIcEEE10exceptionsB7v160006Ev, symObjAddr: 0x8C30, symBinAddr: 0x10000A140, symSize: 0x24 }
  - { offsetInCU: 0x18FFB, offset: 0x18FFB, size: 0x8, addend: 0x0, symName: __ZNSt3__111char_traitsIcE6assignERcRKc, symObjAddr: 0x8C64, symBinAddr: 0x10000A174, symSize: 0x24 }
  - { offsetInCU: 0x1902C, offset: 0x1902C, size: 0x8, addend: 0x0, symName: __ZNSt3__112basic_stringIcNS_11char_traitsIcEENS_9allocatorIcEEE18__get_long_pointerB7v160006Ev, symObjAddr: 0x8C88, symBinAddr: 0x10000A198, symSize: 0x28 }
  - { offsetInCU: 0x19052, offset: 0x19052, size: 0x8, addend: 0x0, symName: __ZNSt3__112basic_stringIcNS_11char_traitsIcEENS_9allocatorIcEEE15__set_long_sizeB7v160006Em, symObjAddr: 0x8CB0, symBinAddr: 0x10000A1C0, symSize: 0x38 }
  - { offsetInCU: 0x19087, offset: 0x19087, size: 0x8, addend: 0x0, symName: __ZNSt3__112basic_stringIcNS_11char_traitsIcEENS_9allocatorIcEEE19__get_short_pointerB7v160006Ev, symObjAddr: 0x8CE8, symBinAddr: 0x10000A1F8, symSize: 0x28 }
  - { offsetInCU: 0x190AD, offset: 0x190AD, size: 0x8, addend: 0x0, symName: __ZNSt3__112basic_stringIcNS_11char_traitsIcEENS_9allocatorIcEEE16__set_short_sizeB7v160006Em, symObjAddr: 0x8D10, symBinAddr: 0x10000A220, symSize: 0x78 }
  - { offsetInCU: 0x190E2, offset: 0x190E2, size: 0x8, addend: 0x0, symName: __ZNSt3__114pointer_traitsIPcE10pointer_toB7v160006ERc, symObjAddr: 0x8D88, symBinAddr: 0x10000A298, symSize: 0x14 }
  - { offsetInCU: 0x19105, offset: 0x19105, size: 0x8, addend: 0x0, symName: __ZNKSt3__18ios_base5rdbufB7v160006Ev, symObjAddr: 0x8D9C, symBinAddr: 0x10000A2AC, symSize: 0x18 }
  - { offsetInCU: 0x1912B, offset: 0x1912B, size: 0x8, addend: 0x0, symName: __ZNSt3__111char_traitsIcE11to_int_typeEc, symObjAddr: 0x8DB4, symBinAddr: 0x10000A2C4, symSize: 0x14 }
  - { offsetInCU: 0x1914E, offset: 0x1914E, size: 0x8, addend: 0x0, symName: __ZNKSt3__112basic_stringIcNS_11char_traitsIcEENS_9allocatorIcEEE15__get_long_sizeB7v160006Ev, symObjAddr: 0x8DC8, symBinAddr: 0x10000A2D8, symSize: 0x28 }
  - { offsetInCU: 0x19174, offset: 0x19174, size: 0x8, addend: 0x0, symName: __ZNKSt3__112basic_stringIcNS_11char_traitsIcEENS_9allocatorIcEEE16__get_short_sizeB7v160006Ev, symObjAddr: 0x8DF0, symBinAddr: 0x10000A300, symSize: 0x34 }
  - { offsetInCU: 0x191A4, offset: 0x191A4, size: 0x8, addend: 0x0, symName: __ZNSt3__116allocator_traitsINS_9allocatorIcEEE8max_sizeB7v160006IS2_vEEmRKS2_, symObjAddr: 0x8E24, symBinAddr: 0x10000A334, symSize: 0x24 }
  - { offsetInCU: 0x191D2, offset: 0x191D2, size: 0x8, addend: 0x0, symName: __ZNSt3__114numeric_limitsImE3maxB7v160006Ev, symObjAddr: 0x8E48, symBinAddr: 0x10000A358, symSize: 0x14 }
  - { offsetInCU: 0x191E6, offset: 0x191E6, size: 0x8, addend: 0x0, symName: __ZNKSt3__19allocatorIcE8max_sizeB7v160006Ev, symObjAddr: 0x8E5C, symBinAddr: 0x10000A36C, symSize: 0x14 }
  - { offsetInCU: 0x1920C, offset: 0x1920C, size: 0x8, addend: 0x0, symName: __ZNSt3__123__libcpp_numeric_limitsImLb1EE3maxB7v160006Ev, symObjAddr: 0x8E70, symBinAddr: 0x10000A380, symSize: 0x8 }
  - { offsetInCU: 0x19220, offset: 0x19220, size: 0x8, addend: 0x0, symName: __ZNKSt3__18ios_base10exceptionsB7v160006Ev, symObjAddr: 0x8E78, symBinAddr: 0x10000A388, symSize: 0x18 }
  - { offsetInCU: 0x19248, offset: 0x19248, size: 0x8, addend: 0x0, symName: __ZNSt3__16vectorIdNS_9allocatorIdEEE22__construct_one_at_endB7v160006IJRKdEEEvDpOT_, symObjAddr: 0x8E90, symBinAddr: 0x10000A3A0, symSize: 0x90 }
  - { offsetInCU: 0x19297, offset: 0x19297, size: 0x8, addend: 0x0, symName: __ZNSt3__16vectorIdNS_9allocatorIdEEE21__push_back_slow_pathIRKdEEvOT_, symObjAddr: 0x8F20, symBinAddr: 0x10000A430, symSize: 0xD8 }
  - { offsetInCU: 0x192F5, offset: 0x192F5, size: 0x8, addend: 0x0, symName: __ZNSt3__116allocator_traitsINS_9allocatorIdEEE9constructB7v160006IdJRKdEvEEvRS2_PT_DpOT0_, symObjAddr: 0x8FF8, symBinAddr: 0x10000A508, symSize: 0x34 }
  - { offsetInCU: 0x1934C, offset: 0x1934C, size: 0x8, addend: 0x0, symName: __ZNSt3__19allocatorIdE9constructB7v160006IdJRKdEEEvPT_DpOT0_, symObjAddr: 0x902C, symBinAddr: 0x10000A53C, symSize: 0x28 }
  - { offsetInCU: 0x193A2, offset: 0x193A2, size: 0x8, addend: 0x0, symName: __ZNSt3__114__split_bufferIdRNS_9allocatorIdEEEC1EmmS3_, symObjAddr: 0x9054, symBinAddr: 0x10000A564, symSize: 0x44 }
  - { offsetInCU: 0x193F8, offset: 0x193F8, size: 0x8, addend: 0x0, symName: __ZNSt3__114__split_bufferIdRNS_9allocatorIdEEED1Ev, symObjAddr: 0x91B0, symBinAddr: 0x10000A6C0, symSize: 0x2C }
  - { offsetInCU: 0x19424, offset: 0x19424, size: 0x8, addend: 0x0, symName: __ZNSt3__114__split_bufferIdRNS_9allocatorIdEEEC2EmmS3_, symObjAddr: 0x91DC, symBinAddr: 0x10000A6EC, symSize: 0xD4 }
  - { offsetInCU: 0x19498, offset: 0x19498, size: 0x8, addend: 0x0, symName: __ZNSt3__117__compressed_pairIPdRNS_9allocatorIdEEEC1B7v160006IDnS4_EEOT_OT0_, symObjAddr: 0x92B0, symBinAddr: 0x10000A7C0, symSize: 0x3C }
  - { offsetInCU: 0x194F0, offset: 0x194F0, size: 0x8, addend: 0x0, symName: __ZNSt3__114__split_bufferIdRNS_9allocatorIdEEE7__allocB7v160006Ev, symObjAddr: 0x92EC, symBinAddr: 0x10000A7FC, symSize: 0x28 }
  - { offsetInCU: 0x19516, offset: 0x19516, size: 0x8, addend: 0x0, symName: __ZNSt3__114__split_bufferIdRNS_9allocatorIdEEE9__end_capB7v160006Ev, symObjAddr: 0x9314, symBinAddr: 0x10000A824, symSize: 0x28 }
  - { offsetInCU: 0x1953C, offset: 0x1953C, size: 0x8, addend: 0x0, symName: __ZNSt3__117__compressed_pairIPdRNS_9allocatorIdEEEC2B7v160006IDnS4_EEOT_OT0_, symObjAddr: 0x933C, symBinAddr: 0x10000A84C, symSize: 0x48 }
  - { offsetInCU: 0x19594, offset: 0x19594, size: 0x8, addend: 0x0, symName: __ZNSt3__122__compressed_pair_elemIRNS_9allocatorIdEELi1ELb0EEC2B7v160006IS3_vEEOT_, symObjAddr: 0x9384, symBinAddr: 0x10000A894, symSize: 0x20 }
  - { offsetInCU: 0x195D6, offset: 0x195D6, size: 0x8, addend: 0x0, symName: __ZNSt3__117__compressed_pairIPdRNS_9allocatorIdEEE6secondB7v160006Ev, symObjAddr: 0x93A4, symBinAddr: 0x10000A8B4, symSize: 0x28 }
  - { offsetInCU: 0x195FC, offset: 0x195FC, size: 0x8, addend: 0x0, symName: __ZNSt3__122__compressed_pair_elemIRNS_9allocatorIdEELi1ELb0EE5__getB7v160006Ev, symObjAddr: 0x93CC, symBinAddr: 0x10000A8DC, symSize: 0x18 }
  - { offsetInCU: 0x19622, offset: 0x19622, size: 0x8, addend: 0x0, symName: __ZNSt3__117__compressed_pairIPdRNS_9allocatorIdEEE5firstB7v160006Ev, symObjAddr: 0x93E4, symBinAddr: 0x10000A8F4, symSize: 0x24 }
  - { offsetInCU: 0x1966B, offset: 0x1966B, size: 0x8, addend: 0x0, symName: __ZNKSt3__111__move_loopINS_17_ClassicAlgPolicyEEclB7v160006INS_16reverse_iteratorIPdEES6_S6_EENS_4pairIT_T1_EES8_T0_S9_, symObjAddr: 0x97AC, symBinAddr: 0x10000ACBC, symSize: 0xA0 }
  - { offsetInCU: 0x196DB, offset: 0x196DB, size: 0x8, addend: 0x0, symName: __ZNSt3__18_IterOpsINS_17_ClassicAlgPolicyEE11__iter_moveB7v160006IRNS_16reverse_iteratorIPdEEEENS_9enable_ifIXsr12is_referenceIDTdeclsr3stdE7declvalIRT_EEEEE5valueEDTclsr3stdE4movedeclsr3stdE7declvalISA_EEEEE4typeEOS9_, symObjAddr: 0x9998, symBinAddr: 0x10000AEA8, symSize: 0x28 }
  - { offsetInCU: 0x19707, offset: 0x19707, size: 0x8, addend: 0x0, symName: __ZNSt3__18_IterOpsINS_17_ClassicAlgPolicyEE25__validate_iter_referenceB7v160006IRNS_16reverse_iteratorIPdEEEEvv, symObjAddr: 0x99C0, symBinAddr: 0x10000AED0, symSize: 0x4 }
  - { offsetInCU: 0x19725, offset: 0x19725, size: 0x8, addend: 0x0, symName: __ZNSt3__118__unwrap_iter_implINS_16reverse_iteratorIPdEELb0EE8__unwrapB7v160006ES3_, symObjAddr: 0x99C4, symBinAddr: 0x10000AED4, symSize: 0x24 }
  - { offsetInCU: 0x1974D, offset: 0x1974D, size: 0x8, addend: 0x0, symName: __ZNSt3__14pairINS_16reverse_iteratorIPdEES3_EC1B7v160006IS3_S3_LPv0EEEOT_OT0_, symObjAddr: 0x99E8, symBinAddr: 0x10000AEF8, symSize: 0x3C }
  - { offsetInCU: 0x197AB, offset: 0x197AB, size: 0x8, addend: 0x0, symName: __ZNSt3__14pairINS_16reverse_iteratorIPdEES3_EC2B7v160006IS3_S3_LPv0EEEOT_OT0_, symObjAddr: 0x9A24, symBinAddr: 0x10000AF34, symSize: 0x34 }
  - { offsetInCU: 0x19809, offset: 0x19809, size: 0x8, addend: 0x0, symName: __ZNSt3__118__unwrap_iter_implINS_16reverse_iteratorIPdEELb0EE8__rewrapB7v160006ES3_S3_, symObjAddr: 0x9A58, symBinAddr: 0x10000AF68, symSize: 0x2C }
  - { offsetInCU: 0x19836, offset: 0x19836, size: 0x8, addend: 0x0, symName: __ZNSt3__114__split_bufferIdRNS_9allocatorIdEEED2Ev, symObjAddr: 0x9A84, symBinAddr: 0x10000AF94, symSize: 0x8C }
  - { offsetInCU: 0x19862, offset: 0x19862, size: 0x8, addend: 0x0, symName: __ZNSt3__114__split_bufferIdRNS_9allocatorIdEEE5clearB7v160006Ev, symObjAddr: 0x9B10, symBinAddr: 0x10000B020, symSize: 0x28 }
  - { offsetInCU: 0x19888, offset: 0x19888, size: 0x8, addend: 0x0, symName: __ZNKSt3__114__split_bufferIdRNS_9allocatorIdEEE8capacityB7v160006Ev, symObjAddr: 0x9B38, symBinAddr: 0x10000B048, symSize: 0x40 }
  - { offsetInCU: 0x198AE, offset: 0x198AE, size: 0x8, addend: 0x0, symName: __ZNSt3__114__split_bufferIdRNS_9allocatorIdEEE17__destruct_at_endB7v160006EPd, symObjAddr: 0x9B78, symBinAddr: 0x10000B088, symSize: 0x2C }
  - { offsetInCU: 0x198E2, offset: 0x198E2, size: 0x8, addend: 0x0, symName: __ZNSt3__114__split_bufferIdRNS_9allocatorIdEEE17__destruct_at_endB7v160006EPdNS_17integral_constantIbLb0EEE, symObjAddr: 0x9BA4, symBinAddr: 0x10000B0B4, symSize: 0x80 }
  - { offsetInCU: 0x19922, offset: 0x19922, size: 0x8, addend: 0x0, symName: __ZNKSt3__114__split_bufferIdRNS_9allocatorIdEEE9__end_capB7v160006Ev, symObjAddr: 0x9C24, symBinAddr: 0x10000B134, symSize: 0x28 }
  - { offsetInCU: 0x19948, offset: 0x19948, size: 0x8, addend: 0x0, symName: __ZNKSt3__117__compressed_pairIPdRNS_9allocatorIdEEE5firstB7v160006Ev, symObjAddr: 0x9C4C, symBinAddr: 0x10000B15C, symSize: 0x24 }
  - { offsetInCU: 0x1996E, offset: 0x1996E, size: 0x8, addend: 0x0, symName: __ZNSt3__16vectorI5pointNS_9allocatorIS1_EEE22__construct_one_at_endB7v160006IJS1_EEEvDpOT_, symObjAddr: 0x9C70, symBinAddr: 0x10000B180, symSize: 0x90 }
  - { offsetInCU: 0x199BD, offset: 0x199BD, size: 0x8, addend: 0x0, symName: __ZNSt3__16vectorI5pointNS_9allocatorIS1_EEE21__push_back_slow_pathIS1_EEvOT_, symObjAddr: 0x9D00, symBinAddr: 0x10000B210, symSize: 0xD8 }
  - { offsetInCU: 0x19A1B, offset: 0x19A1B, size: 0x8, addend: 0x0, symName: __ZNSt3__123mersenne_twister_engineIjLm32ELm624ELm397ELm31ELj2567483615ELm11ELj4294967295ELm7ELj2636928640ELm15ELj4022730752ELm18ELj1812433253EEC2B7v160006Ej, symObjAddr: 0x9DD8, symBinAddr: 0x10000B2E8, symSize: 0x34 }
  - { offsetInCU: 0x19A53, offset: 0x19A53, size: 0x8, addend: 0x0, symName: __ZNSt3__123mersenne_twister_engineIjLm32ELm624ELm397ELm31ELj2567483615ELm11ELj4294967295ELm7ELj2636928640ELm15ELj4022730752ELm18ELj1812433253EE4seedEj, symObjAddr: 0x9E0C, symBinAddr: 0x10000B31C, symSize: 0xC4 }
  - { offsetInCU: 0x19AA7, offset: 0x19AA7, size: 0x8, addend: 0x0, symName: __ZNSt3__123mersenne_twister_engineIjLm32ELm624ELm397ELm31ELj2567483615ELm11ELj4294967295ELm7ELj2636928640ELm15ELj4022730752ELm18ELj1812433253EE8__rshiftB7v160006ILm30EEENS_9enable_ifIXltT_L_ZNS1_3_DtEEEjE4typeEj, symObjAddr: 0x9ED0, symBinAddr: 0x10000B3E0, symSize: 0x18 }
  - { offsetInCU: 0x19AD4, offset: 0x19AD4, size: 0x8, addend: 0x0, symName: __ZNSt3__124uniform_int_distributionIiEC2Eii, symObjAddr: 0x9EE8, symBinAddr: 0x10000B3F8, symSize: 0x3C }
  - { offsetInCU: 0x19B1A, offset: 0x19B1A, size: 0x8, addend: 0x0, symName: __ZNSt3__124uniform_int_distributionIiE10param_typeC1Eii, symObjAddr: 0x9F24, symBinAddr: 0x10000B434, symSize: 0x3C }
  - { offsetInCU: 0x19B60, offset: 0x19B60, size: 0x8, addend: 0x0, symName: __ZNSt3__124uniform_int_distributionIiE10param_typeC2Eii, symObjAddr: 0x9F60, symBinAddr: 0x10000B470, symSize: 0x2C }
  - { offsetInCU: 0x19BA6, offset: 0x19BA6, size: 0x8, addend: 0x0, symName: __ZNKSt3__124uniform_int_distributionIiE10param_type1bEv, symObjAddr: 0xA114, symBinAddr: 0x10000B624, symSize: 0x18 }
  - { offsetInCU: 0x19BCC, offset: 0x19BCC, size: 0x8, addend: 0x0, symName: __ZNKSt3__124uniform_int_distributionIiE10param_type1aEv, symObjAddr: 0xA12C, symBinAddr: 0x10000B63C, symSize: 0x18 }
  - { offsetInCU: 0x19BF2, offset: 0x19BF2, size: 0x8, addend: 0x0, symName: __ZNSt3__125__independent_bits_engineINS_23mersenne_twister_engineIjLm32ELm624ELm397ELm31ELj2567483615ELm11ELj4294967295ELm7ELj2636928640ELm15ELj4022730752ELm18ELj1812433253EEEjEC1ERS2_m, symObjAddr: 0xA144, symBinAddr: 0x10000B654, symSize: 0x3C }
  - { offsetInCU: 0x19C39, offset: 0x19C39, size: 0x8, addend: 0x0, symName: __ZNSt3__125__independent_bits_engineINS_23mersenne_twister_engineIjLm32ELm624ELm397ELm31ELj2567483615ELm11ELj4294967295ELm7ELj2636928640ELm15ELj4022730752ELm18ELj1812433253EEEjEclEv, symObjAddr: 0xA180, symBinAddr: 0x10000B690, symSize: 0x24 }
  - { offsetInCU: 0x19C5F, offset: 0x19C5F, size: 0x8, addend: 0x0, symName: __ZNSt3__114numeric_limitsIjE3maxB7v160006Ev, symObjAddr: 0xA1F8, symBinAddr: 0x10000B708, symSize: 0x14 }
  - { offsetInCU: 0x19C73, offset: 0x19C73, size: 0x8, addend: 0x0, symName: __ZNSt3__125__independent_bits_engineINS_23mersenne_twister_engineIjLm32ELm624ELm397ELm31ELj2567483615ELm11ELj4294967295ELm7ELj2636928640ELm15ELj4022730752ELm18ELj1812433253EEEjEC2ERS2_m, symObjAddr: 0xA20C, symBinAddr: 0x10000B71C, symSize: 0x22C }
  - { offsetInCU: 0x19CBA, offset: 0x19CBA, size: 0x8, addend: 0x0, symName: __ZNSt3__125__independent_bits_engineINS_23mersenne_twister_engineIjLm32ELm624ELm397ELm31ELj2567483615ELm11ELj4294967295ELm7ELj2636928640ELm15ELj4022730752ELm18ELj1812433253EEEjE6__evalENS_17integral_constantIbLb0EEE, symObjAddr: 0xA438, symBinAddr: 0x10000B948, symSize: 0x38 }
  - { offsetInCU: 0x19CEB, offset: 0x19CEB, size: 0x8, addend: 0x0, symName: __ZNSt3__123mersenne_twister_engineIjLm32ELm624ELm397ELm31ELj2567483615ELm11ELj4294967295ELm7ELj2636928640ELm15ELj4022730752ELm18ELj1812433253EEclEv, symObjAddr: 0xA470, symBinAddr: 0x10000B980, symSize: 0x14C }
  - { offsetInCU: 0x19D5E, offset: 0x19D5E, size: 0x8, addend: 0x0, symName: __ZNSt3__123mersenne_twister_engineIjLm32ELm624ELm397ELm31ELj2567483615ELm11ELj4294967295ELm7ELj2636928640ELm15ELj4022730752ELm18ELj1812433253EE8__rshiftB7v160006ILm1EEENS_9enable_ifIXltT_L_ZNS1_3_DtEEEjE4typeEj, symObjAddr: 0xA5BC, symBinAddr: 0x10000BACC, symSize: 0x18 }
  - { offsetInCU: 0x19D8B, offset: 0x19D8B, size: 0x8, addend: 0x0, symName: __ZNSt3__123mersenne_twister_engineIjLm32ELm624ELm397ELm31ELj2567483615ELm11ELj4294967295ELm7ELj2636928640ELm15ELj4022730752ELm18ELj1812433253EE8__rshiftB7v160006ILm11EEENS_9enable_ifIXltT_L_ZNS1_3_DtEEEjE4typeEj, symObjAddr: 0xA5D4, symBinAddr: 0x10000BAE4, symSize: 0x18 }
  - { offsetInCU: 0x19DB8, offset: 0x19DB8, size: 0x8, addend: 0x0, symName: __ZNSt3__123mersenne_twister_engineIjLm32ELm624ELm397ELm31ELj2567483615ELm11ELj4294967295ELm7ELj2636928640ELm15ELj4022730752ELm18ELj1812433253EE8__lshiftB7v160006ILm7EEENS_9enable_ifIXltT_Lm32EEjE4typeEj, symObjAddr: 0xA5EC, symBinAddr: 0x10000BAFC, symSize: 0x1C }
  - { offsetInCU: 0x19DE5, offset: 0x19DE5, size: 0x8, addend: 0x0, symName: __ZNSt3__123mersenne_twister_engineIjLm32ELm624ELm397ELm31ELj2567483615ELm11ELj4294967295ELm7ELj2636928640ELm15ELj4022730752ELm18ELj1812433253EE8__lshiftB7v160006ILm15EEENS_9enable_ifIXltT_Lm32EEjE4typeEj, symObjAddr: 0xA608, symBinAddr: 0x10000BB18, symSize: 0x1C }
  - { offsetInCU: 0x19E12, offset: 0x19E12, size: 0x8, addend: 0x0, symName: __ZNSt3__123mersenne_twister_engineIjLm32ELm624ELm397ELm31ELj2567483615ELm11ELj4294967295ELm7ELj2636928640ELm15ELj4022730752ELm18ELj1812433253EE8__rshiftB7v160006ILm18EEENS_9enable_ifIXltT_L_ZNS1_3_DtEEEjE4typeEj, symObjAddr: 0xA624, symBinAddr: 0x10000BB34, symSize: 0x18 }
  - { offsetInCU: 0x19E3F, offset: 0x19E3F, size: 0x8, addend: 0x0, symName: __ZNSt3__123__libcpp_numeric_limitsIjLb1EE3maxB7v160006Ev, symObjAddr: 0xA654, symBinAddr: 0x10000BB64, symSize: 0x8 }
  - { offsetInCU: 0x19E53, offset: 0x19E53, size: 0x8, addend: 0x0, symName: __ZNKSt3__16vectorI5pointNS_9allocatorIS1_EEE20__throw_out_of_rangeB7v160006Ev, symObjAddr: 0xA65C, symBinAddr: 0x10000BB6C, symSize: 0x1C }
  - { offsetInCU: 0x19E79, offset: 0x19E79, size: 0x8, addend: 0x0, symName: __ZNSt12out_of_rangeC1B7v160006EPKc, symObjAddr: 0xA6DC, symBinAddr: 0x10000BBEC, symSize: 0x34 }
  - { offsetInCU: 0x19EB1, offset: 0x19EB1, size: 0x8, addend: 0x0, symName: __ZNSt12out_of_rangeC2B7v160006EPKc, symObjAddr: 0xA710, symBinAddr: 0x10000BC20, symSize: 0x4C }
  - { offsetInCU: 0x19EE9, offset: 0x19EE9, size: 0x8, addend: 0x0, symName: __ZNSt3__16vectorI5pointNS_9allocatorIS1_EEE11__make_iterB7v160006EPS1_, symObjAddr: 0xA75C, symBinAddr: 0x10000BC6C, symSize: 0x34 }
  - { offsetInCU: 0x19F1E, offset: 0x19F1E, size: 0x8, addend: 0x0, symName: __ZNSt3__111__wrap_iterIP5pointEC1B7v160006EPKvS2_, symObjAddr: 0xA790, symBinAddr: 0x10000BCA0, symSize: 0x3C }
  - { offsetInCU: 0x19F64, offset: 0x19F64, size: 0x8, addend: 0x0, symName: __ZNSt3__111__wrap_iterIP5pointEC2B7v160006EPKvS2_, symObjAddr: 0xA7CC, symBinAddr: 0x10000BCDC, symSize: 0x24 }
  - { offsetInCU: 0x19FAA, offset: 0x19FAA, size: 0x8, addend: 0x0, symName: __ZNSt3__16vectorIdNS_9allocatorIdEEEC2EmRKd, symObjAddr: 0xA7F0, symBinAddr: 0x10000BD00, symSize: 0xE4 }
  - { offsetInCU: 0x1A009, offset: 0x1A009, size: 0x8, addend: 0x0, symName: __ZNSt3__16vectorIdNS_9allocatorIdEEE18__construct_at_endEmRKd, symObjAddr: 0xA8D4, symBinAddr: 0x10000BDE4, symSize: 0xD0 }
  - { offsetInCU: 0x1A08B, offset: 0x1A08B, size: 0x8, addend: 0x0, symName: __ZNSt3__16vectorI5pointNS_9allocatorIS1_EEEC2EmRKS1_, symObjAddr: 0xA9A4, symBinAddr: 0x10000BEB4, symSize: 0xE4 }
  - { offsetInCU: 0x1A0EA, offset: 0x1A0EA, size: 0x8, addend: 0x0, symName: __ZNSt3__16vectorI5pointNS_9allocatorIS1_EEE18__construct_at_endEmRKS1_, symObjAddr: 0xAA88, symBinAddr: 0x10000BF98, symSize: 0xD0 }
  - { offsetInCU: 0x1A16C, offset: 0x1A16C, size: 0x8, addend: 0x0, symName: __ZNSt3__16vectorIiNS_9allocatorIiEEEC2EmRKi, symObjAddr: 0xAB58, symBinAddr: 0x10000C068, symSize: 0xE8 }
  - { offsetInCU: 0x1A1CB, offset: 0x1A1CB, size: 0x8, addend: 0x0, symName: __ZNSt3__117__compressed_pairIPiNS_9allocatorIiEEEC1B7v160006IDnNS_18__default_init_tagEEEOT_OT0_, symObjAddr: 0xAC40, symBinAddr: 0x10000C150, symSize: 0x3C }
  - { offsetInCU: 0x1A223, offset: 0x1A223, size: 0x8, addend: 0x0, symName: __ZNSt3__16vectorIiNS_9allocatorIiEEE16__destroy_vectorC1ERS3_, symObjAddr: 0xACBC, symBinAddr: 0x10000C1CC, symSize: 0x34 }
  - { offsetInCU: 0x1A25C, offset: 0x1A25C, size: 0x8, addend: 0x0, symName: __ZNSt3__16vectorIiNS_9allocatorIiEEE11__vallocateB7v160006Em, symObjAddr: 0xAD00, symBinAddr: 0x10000C210, symSize: 0xAC }
  - { offsetInCU: 0x1A2A0, offset: 0x1A2A0, size: 0x8, addend: 0x0, symName: __ZNSt3__16vectorIiNS_9allocatorIiEEE18__construct_at_endEmRKi, symObjAddr: 0xADAC, symBinAddr: 0x10000C2BC, symSize: 0xD0 }
  - { offsetInCU: 0x1A322, offset: 0x1A322, size: 0x8, addend: 0x0, symName: __ZNSt3__128__exception_guard_exceptionsINS_6vectorIiNS_9allocatorIiEEE16__destroy_vectorEE10__completeB7v160006Ev, symObjAddr: 0xAE7C, symBinAddr: 0x10000C38C, symSize: 0x1C }
  - { offsetInCU: 0x1A348, offset: 0x1A348, size: 0x8, addend: 0x0, symName: __ZNSt3__128__exception_guard_exceptionsINS_6vectorIiNS_9allocatorIiEEE16__destroy_vectorEED1B7v160006Ev, symObjAddr: 0xAE98, symBinAddr: 0x10000C3A8, symSize: 0x2C }
  - { offsetInCU: 0x1A372, offset: 0x1A372, size: 0x8, addend: 0x0, symName: __ZNSt3__117__compressed_pairIPiNS_9allocatorIiEEEC2B7v160006IDnNS_18__default_init_tagEEEOT_OT0_, symObjAddr: 0xAEC4, symBinAddr: 0x10000C3D4, symSize: 0x40 }
  - { offsetInCU: 0x1A3CA, offset: 0x1A3CA, size: 0x8, addend: 0x0, symName: __ZNSt3__122__compressed_pair_elemIPiLi0ELb0EEC2B7v160006IDnvEEOT_, symObjAddr: 0xAF04, symBinAddr: 0x10000C414, symSize: 0x1C }
  - { offsetInCU: 0x1A40C, offset: 0x1A40C, size: 0x8, addend: 0x0, symName: __ZNSt3__122__compressed_pair_elemINS_9allocatorIiEELi1ELb1EEC2B7v160006ENS_18__default_init_tagE, symObjAddr: 0xAF20, symBinAddr: 0x10000C430, symSize: 0x2C }
  - { offsetInCU: 0x1A440, offset: 0x1A440, size: 0x8, addend: 0x0, symName: __ZNSt3__19allocatorIiEC2B7v160006Ev, symObjAddr: 0xAF4C, symBinAddr: 0x10000C45C, symSize: 0x2C }
  - { offsetInCU: 0x1A46A, offset: 0x1A46A, size: 0x8, addend: 0x0, symName: __ZNSt3__116__non_trivial_ifILb1ENS_9allocatorIiEEEC2B7v160006Ev, symObjAddr: 0xAF78, symBinAddr: 0x10000C488, symSize: 0x14 }
  - { offsetInCU: 0x1A494, offset: 0x1A494, size: 0x8, addend: 0x0, symName: __ZNSt3__128__exception_guard_exceptionsINS_6vectorIiNS_9allocatorIiEEE16__destroy_vectorEEC1B7v160006ES5_, symObjAddr: 0xAF8C, symBinAddr: 0x10000C49C, symSize: 0x34 }
  - { offsetInCU: 0x1A4CC, offset: 0x1A4CC, size: 0x8, addend: 0x0, symName: __ZNSt3__128__exception_guard_exceptionsINS_6vectorIiNS_9allocatorIiEEE16__destroy_vectorEEC2B7v160006ES5_, symObjAddr: 0xAFC0, symBinAddr: 0x10000C4D0, symSize: 0x24 }
  - { offsetInCU: 0x1A504, offset: 0x1A504, size: 0x8, addend: 0x0, symName: __ZNSt3__16vectorIiNS_9allocatorIiEEE16__destroy_vectorC2ERS3_, symObjAddr: 0xAFE4, symBinAddr: 0x10000C4F4, symSize: 0x20 }
  - { offsetInCU: 0x1A53D, offset: 0x1A53D, size: 0x8, addend: 0x0, symName: __ZNKSt3__16vectorIiNS_9allocatorIiEEE8max_sizeEv, symObjAddr: 0xB004, symBinAddr: 0x10000C514, symSize: 0x60 }
  - { offsetInCU: 0x1A565, offset: 0x1A565, size: 0x8, addend: 0x0, symName: __ZNKSt3__16vectorIiNS_9allocatorIiEEE20__throw_length_errorB7v160006Ev, symObjAddr: 0xB064, symBinAddr: 0x10000C574, symSize: 0x1C }
  - { offsetInCU: 0x1A58B, offset: 0x1A58B, size: 0x8, addend: 0x0, symName: __ZNSt3__16vectorIiNS_9allocatorIiEEE7__allocB7v160006Ev, symObjAddr: 0xB0C0, symBinAddr: 0x10000C5D0, symSize: 0x28 }
  - { offsetInCU: 0x1A5B1, offset: 0x1A5B1, size: 0x8, addend: 0x0, symName: __ZNSt3__16vectorIiNS_9allocatorIiEEE9__end_capB7v160006Ev, symObjAddr: 0xB0E8, symBinAddr: 0x10000C5F8, symSize: 0x28 }
  - { offsetInCU: 0x1A5D7, offset: 0x1A5D7, size: 0x8, addend: 0x0, symName: __ZNKSt3__16vectorIiNS_9allocatorIiEEE14__annotate_newB7v160006Em, symObjAddr: 0xB110, symBinAddr: 0x10000C620, symSize: 0xAC }
  - { offsetInCU: 0x1A616, offset: 0x1A616, size: 0x8, addend: 0x0, symName: __ZNSt3__116allocator_traitsINS_9allocatorIiEEE8max_sizeB7v160006IS2_vEEmRKS2_, symObjAddr: 0xB1BC, symBinAddr: 0x10000C6CC, symSize: 0x24 }
  - { offsetInCU: 0x1A644, offset: 0x1A644, size: 0x8, addend: 0x0, symName: __ZNKSt3__16vectorIiNS_9allocatorIiEEE7__allocB7v160006Ev, symObjAddr: 0xB1E0, symBinAddr: 0x10000C6F0, symSize: 0x28 }
  - { offsetInCU: 0x1A66A, offset: 0x1A66A, size: 0x8, addend: 0x0, symName: __ZNKSt3__19allocatorIiE8max_sizeB7v160006Ev, symObjAddr: 0xB208, symBinAddr: 0x10000C718, symSize: 0x14 }
  - { offsetInCU: 0x1A690, offset: 0x1A690, size: 0x8, addend: 0x0, symName: __ZNKSt3__117__compressed_pairIPiNS_9allocatorIiEEE6secondB7v160006Ev, symObjAddr: 0xB21C, symBinAddr: 0x10000C72C, symSize: 0x24 }
  - { offsetInCU: 0x1A6B6, offset: 0x1A6B6, size: 0x8, addend: 0x0, symName: __ZNKSt3__122__compressed_pair_elemINS_9allocatorIiEELi1ELb1EE5__getB7v160006Ev, symObjAddr: 0xB240, symBinAddr: 0x10000C750, symSize: 0x14 }
  - { offsetInCU: 0x1A6DC, offset: 0x1A6DC, size: 0x8, addend: 0x0, symName: __ZNSt3__19allocatorIiE8allocateB7v160006Em, symObjAddr: 0xB254, symBinAddr: 0x10000C764, symSize: 0x58 }
  - { offsetInCU: 0x1A710, offset: 0x1A710, size: 0x8, addend: 0x0, symName: __ZNSt3__117__compressed_pairIPiNS_9allocatorIiEEE6secondB7v160006Ev, symObjAddr: 0xB2AC, symBinAddr: 0x10000C7BC, symSize: 0x24 }
  - { offsetInCU: 0x1A736, offset: 0x1A736, size: 0x8, addend: 0x0, symName: __ZNSt3__122__compressed_pair_elemINS_9allocatorIiEELi1ELb1EE5__getB7v160006Ev, symObjAddr: 0xB2D0, symBinAddr: 0x10000C7E0, symSize: 0x14 }
  - { offsetInCU: 0x1A75C, offset: 0x1A75C, size: 0x8, addend: 0x0, symName: __ZNSt3__117__compressed_pairIPiNS_9allocatorIiEEE5firstB7v160006Ev, symObjAddr: 0xB2E4, symBinAddr: 0x10000C7F4, symSize: 0x24 }
  - { offsetInCU: 0x1A782, offset: 0x1A782, size: 0x8, addend: 0x0, symName: __ZNSt3__122__compressed_pair_elemIPiLi0ELb0EE5__getB7v160006Ev, symObjAddr: 0xB308, symBinAddr: 0x10000C818, symSize: 0x14 }
  - { offsetInCU: 0x1A7A8, offset: 0x1A7A8, size: 0x8, addend: 0x0, symName: __ZNKSt3__16vectorIiNS_9allocatorIiEEE31__annotate_contiguous_containerB7v160006EPKvS5_S5_S5_, symObjAddr: 0xB31C, symBinAddr: 0x10000C82C, symSize: 0x20 }
  - { offsetInCU: 0x1A7FA, offset: 0x1A7FA, size: 0x8, addend: 0x0, symName: __ZNKSt3__16vectorIiNS_9allocatorIiEEE4dataB7v160006Ev, symObjAddr: 0xB33C, symBinAddr: 0x10000C84C, symSize: 0x28 }
  - { offsetInCU: 0x1A820, offset: 0x1A820, size: 0x8, addend: 0x0, symName: __ZNKSt3__16vectorIiNS_9allocatorIiEEE8capacityB7v160006Ev, symObjAddr: 0xB364, symBinAddr: 0x10000C874, symSize: 0x40 }
  - { offsetInCU: 0x1A846, offset: 0x1A846, size: 0x8, addend: 0x0, symName: __ZNKSt3__16vectorIiNS_9allocatorIiEEE9__end_capB7v160006Ev, symObjAddr: 0xB3B8, symBinAddr: 0x10000C8C8, symSize: 0x28 }
  - { offsetInCU: 0x1A86C, offset: 0x1A86C, size: 0x8, addend: 0x0, symName: __ZNKSt3__117__compressed_pairIPiNS_9allocatorIiEEE5firstB7v160006Ev, symObjAddr: 0xB3E0, symBinAddr: 0x10000C8F0, symSize: 0x24 }
  - { offsetInCU: 0x1A892, offset: 0x1A892, size: 0x8, addend: 0x0, symName: __ZNKSt3__122__compressed_pair_elemIPiLi0ELb0EE5__getB7v160006Ev, symObjAddr: 0xB404, symBinAddr: 0x10000C914, symSize: 0x14 }
  - { offsetInCU: 0x1A8D1, offset: 0x1A8D1, size: 0x8, addend: 0x0, symName: __ZNSt3__16vectorIiNS_9allocatorIiEEE21_ConstructTransactionC1B7v160006ERS3_m, symObjAddr: 0xB418, symBinAddr: 0x10000C928, symSize: 0x3C }
  - { offsetInCU: 0x1A919, offset: 0x1A919, size: 0x8, addend: 0x0, symName: __ZNSt3__116allocator_traitsINS_9allocatorIiEEE9constructB7v160006IiJRKiEvEEvRS2_PT_DpOT0_, symObjAddr: 0xB454, symBinAddr: 0x10000C964, symSize: 0x34 }
  - { offsetInCU: 0x1A970, offset: 0x1A970, size: 0x8, addend: 0x0, symName: __ZNSt3__16vectorIiNS_9allocatorIiEEE21_ConstructTransactionD1B7v160006Ev, symObjAddr: 0xB488, symBinAddr: 0x10000C998, symSize: 0x2C }
  - { offsetInCU: 0x1A99A, offset: 0x1A99A, size: 0x8, addend: 0x0, symName: __ZNSt3__16vectorIiNS_9allocatorIiEEE21_ConstructTransactionC2B7v160006ERS3_m, symObjAddr: 0xB4B4, symBinAddr: 0x10000C9C4, symSize: 0x44 }
  - { offsetInCU: 0x1A9E2, offset: 0x1A9E2, size: 0x8, addend: 0x0, symName: __ZNSt3__19allocatorIiE9constructB7v160006IiJRKiEEEvPT_DpOT0_, symObjAddr: 0xB4F8, symBinAddr: 0x10000CA08, symSize: 0x28 }
  - { offsetInCU: 0x1AA38, offset: 0x1AA38, size: 0x8, addend: 0x0, symName: __ZNSt3__16vectorIiNS_9allocatorIiEEE21_ConstructTransactionD2B7v160006Ev, symObjAddr: 0xB520, symBinAddr: 0x10000CA30, symSize: 0x20 }
  - { offsetInCU: 0x1AA62, offset: 0x1AA62, size: 0x8, addend: 0x0, symName: __ZNSt3__128__exception_guard_exceptionsINS_6vectorIiNS_9allocatorIiEEE16__destroy_vectorEED2B7v160006Ev, symObjAddr: 0xB540, symBinAddr: 0x10000CA50, symSize: 0x50 }
  - { offsetInCU: 0x1AA8C, offset: 0x1AA8C, size: 0x8, addend: 0x0, symName: __ZNSt3__16vectorIiNS_9allocatorIiEEE16__destroy_vectorclB7v160006Ev, symObjAddr: 0xB590, symBinAddr: 0x10000CAA0, symSize: 0x9C }
  - { offsetInCU: 0x1AAB2, offset: 0x1AAB2, size: 0x8, addend: 0x0, symName: __ZNKSt3__16vectorIiNS_9allocatorIiEEE17__annotate_deleteB7v160006Ev, symObjAddr: 0xB62C, symBinAddr: 0x10000CB3C, symSize: 0xB8 }
  - { offsetInCU: 0x1AAD8, offset: 0x1AAD8, size: 0x8, addend: 0x0, symName: __ZNSt3__16vectorIiNS_9allocatorIiEEE7__clearB7v160006Ev, symObjAddr: 0xB6F4, symBinAddr: 0x10000CC04, symSize: 0x28 }
  - { offsetInCU: 0x1AAFE, offset: 0x1AAFE, size: 0x8, addend: 0x0, symName: __ZNSt3__116allocator_traitsINS_9allocatorIiEEE10deallocateB7v160006ERS2_Pim, symObjAddr: 0xB71C, symBinAddr: 0x10000CC2C, symSize: 0x34 }
  - { offsetInCU: 0x1AB40, offset: 0x1AB40, size: 0x8, addend: 0x0, symName: __ZNKSt3__16vectorIiNS_9allocatorIiEEE4sizeB7v160006Ev, symObjAddr: 0xB750, symBinAddr: 0x10000CC60, symSize: 0x28 }
  - { offsetInCU: 0x1AB66, offset: 0x1AB66, size: 0x8, addend: 0x0, symName: __ZNSt3__16vectorIiNS_9allocatorIiEEE22__base_destruct_at_endB7v160006EPi, symObjAddr: 0xB778, symBinAddr: 0x10000CC88, symSize: 0x8C }
  - { offsetInCU: 0x1ABAA, offset: 0x1ABAA, size: 0x8, addend: 0x0, symName: __ZNSt3__116allocator_traitsINS_9allocatorIiEEE7destroyB7v160006IivEEvRS2_PT_, symObjAddr: 0xB804, symBinAddr: 0x10000CD14, symSize: 0x2C }
  - { offsetInCU: 0x1ABE7, offset: 0x1ABE7, size: 0x8, addend: 0x0, symName: __ZNSt3__19allocatorIiE7destroyB7v160006EPi, symObjAddr: 0xB830, symBinAddr: 0x10000CD40, symSize: 0x14 }
  - { offsetInCU: 0x1AC1B, offset: 0x1AC1B, size: 0x8, addend: 0x0, symName: __ZNSt3__19allocatorIiE10deallocateB7v160006EPim, symObjAddr: 0xB844, symBinAddr: 0x10000CD54, symSize: 0x40 }
  - { offsetInCU: 0x1AC5D, offset: 0x1AC5D, size: 0x8, addend: 0x0, symName: __ZNSt3__16vectorIiNS_9allocatorIiEEED2B7v160006Ev, symObjAddr: 0xB884, symBinAddr: 0x10000CD94, symSize: 0x44 }
  - { offsetInCU: 0x1AC87, offset: 0x1AC87, size: 0x8, addend: 0x0, symName: __ZNKSt3__16vectorI5pointNS_9allocatorIS1_EEE11__make_iterB7v160006EPKS1_, symObjAddr: 0xB8C8, symBinAddr: 0x10000CDD8, symSize: 0x34 }
  - { offsetInCU: 0x1ACBC, offset: 0x1ACBC, size: 0x8, addend: 0x0, symName: __ZNSt3__111__wrap_iterIPK5pointEC1B7v160006EPKvS3_, symObjAddr: 0xB8FC, symBinAddr: 0x10000CE0C, symSize: 0x3C }
  - { offsetInCU: 0x1AD02, offset: 0x1AD02, size: 0x8, addend: 0x0, symName: __ZNSt3__111__wrap_iterIPK5pointEC2B7v160006EPKvS3_, symObjAddr: 0xB938, symBinAddr: 0x10000CE48, symSize: 0x24 }
  - { offsetInCU: 0x1AD48, offset: 0x1AD48, size: 0x8, addend: 0x0, symName: __ZNSt3__16vectorI5pointNS_9allocatorIS1_EEE13__move_assignERS4_NS_17integral_constantIbLb1EEE, symObjAddr: 0xB95C, symBinAddr: 0x10000CE6C, symSize: 0xAC }
  - { offsetInCU: 0x1AD8A, offset: 0x1AD8A, size: 0x8, addend: 0x0, symName: __ZNSt3__16vectorI5pointNS_9allocatorIS1_EEE13__vdeallocateEv, symObjAddr: 0xBA08, symBinAddr: 0x10000CF18, symSize: 0x8C }
  - { offsetInCU: 0x1ADB2, offset: 0x1ADB2, size: 0x8, addend: 0x0, symName: __ZNSt3__16vectorI5pointNS_9allocatorIS1_EEE19__move_assign_allocB7v160006ERS4_, symObjAddr: 0xBA94, symBinAddr: 0x10000CFA4, symSize: 0x2C }
  - { offsetInCU: 0x1ADE7, offset: 0x1ADE7, size: 0x8, addend: 0x0, symName: __ZNSt3__16vectorI5pointNS_9allocatorIS1_EEE5clearB7v160006Ev, symObjAddr: 0xBAD4, symBinAddr: 0x10000CFE4, symSize: 0x4C }
  - { offsetInCU: 0x1AE1C, offset: 0x1AE1C, size: 0x8, addend: 0x0, symName: __ZNKSt3__16vectorI5pointNS_9allocatorIS1_EEE17__annotate_shrinkB7v160006Em, symObjAddr: 0xBB20, symBinAddr: 0x10000D030, symSize: 0xD0 }
  - { offsetInCU: 0x1AE51, offset: 0x1AE51, size: 0x8, addend: 0x0, symName: __ZNSt3__16vectorI5pointNS_9allocatorIS1_EEE19__move_assign_allocB7v160006ERS4_NS_17integral_constantIbLb1EEE, symObjAddr: 0xBBF0, symBinAddr: 0x10000D100, symSize: 0x38 }
  - { offsetInCU: 0x1AE91, offset: 0x1AE91, size: 0x8, addend: 0x0, symName: __ZNSt3__16vectorI7clusterNS_9allocatorIS1_EEEC2EmRKS1_, symObjAddr: 0xBC28, symBinAddr: 0x10000D138, symSize: 0xE8 }
  - { offsetInCU: 0x1AEF0, offset: 0x1AEF0, size: 0x8, addend: 0x0, symName: __ZNSt3__117__compressed_pairIP7clusterNS_9allocatorIS1_EEEC1B7v160006IDnNS_18__default_init_tagEEEOT_OT0_, symObjAddr: 0xBD10, symBinAddr: 0x10000D220, symSize: 0x3C }
  - { offsetInCU: 0x1AF48, offset: 0x1AF48, size: 0x8, addend: 0x0, symName: __ZNSt3__16vectorI7clusterNS_9allocatorIS1_EEE16__destroy_vectorC1ERS4_, symObjAddr: 0xBD8C, symBinAddr: 0x10000D29C, symSize: 0x34 }
  - { offsetInCU: 0x1AF81, offset: 0x1AF81, size: 0x8, addend: 0x0, symName: __ZNSt3__16vectorI7clusterNS_9allocatorIS1_EEE11__vallocateB7v160006Em, symObjAddr: 0xBDD0, symBinAddr: 0x10000D2E0, symSize: 0xB4 }
  - { offsetInCU: 0x1AFC5, offset: 0x1AFC5, size: 0x8, addend: 0x0, symName: __ZNSt3__16vectorI7clusterNS_9allocatorIS1_EEE18__construct_at_endEmRKS1_, symObjAddr: 0xBE84, symBinAddr: 0x10000D394, symSize: 0xD0 }
  - { offsetInCU: 0x1B047, offset: 0x1B047, size: 0x8, addend: 0x0, symName: __ZNSt3__128__exception_guard_exceptionsINS_6vectorI7clusterNS_9allocatorIS2_EEE16__destroy_vectorEE10__completeB7v160006Ev, symObjAddr: 0xBF54, symBinAddr: 0x10000D464, symSize: 0x1C }
  - { offsetInCU: 0x1B06D, offset: 0x1B06D, size: 0x8, addend: 0x0, symName: __ZNSt3__128__exception_guard_exceptionsINS_6vectorI7clusterNS_9allocatorIS2_EEE16__destroy_vectorEED1B7v160006Ev, symObjAddr: 0xBF70, symBinAddr: 0x10000D480, symSize: 0x2C }
  - { offsetInCU: 0x1B097, offset: 0x1B097, size: 0x8, addend: 0x0, symName: __ZNSt3__117__compressed_pairIP7clusterNS_9allocatorIS1_EEEC2B7v160006IDnNS_18__default_init_tagEEEOT_OT0_, symObjAddr: 0xBF9C, symBinAddr: 0x10000D4AC, symSize: 0x40 }
  - { offsetInCU: 0x1B0EF, offset: 0x1B0EF, size: 0x8, addend: 0x0, symName: __ZNSt3__122__compressed_pair_elemIP7clusterLi0ELb0EEC2B7v160006IDnvEEOT_, symObjAddr: 0xBFDC, symBinAddr: 0x10000D4EC, symSize: 0x1C }
  - { offsetInCU: 0x1B131, offset: 0x1B131, size: 0x8, addend: 0x0, symName: __ZNSt3__122__compressed_pair_elemINS_9allocatorI7clusterEELi1ELb1EEC2B7v160006ENS_18__default_init_tagE, symObjAddr: 0xBFF8, symBinAddr: 0x10000D508, symSize: 0x2C }
  - { offsetInCU: 0x1B165, offset: 0x1B165, size: 0x8, addend: 0x0, symName: __ZNSt3__19allocatorI7clusterEC2B7v160006Ev, symObjAddr: 0xC024, symBinAddr: 0x10000D534, symSize: 0x2C }
  - { offsetInCU: 0x1B18F, offset: 0x1B18F, size: 0x8, addend: 0x0, symName: __ZNSt3__116__non_trivial_ifILb1ENS_9allocatorI7clusterEEEC2B7v160006Ev, symObjAddr: 0xC050, symBinAddr: 0x10000D560, symSize: 0x14 }
  - { offsetInCU: 0x1B1B9, offset: 0x1B1B9, size: 0x8, addend: 0x0, symName: __ZNSt3__128__exception_guard_exceptionsINS_6vectorI7clusterNS_9allocatorIS2_EEE16__destroy_vectorEEC1B7v160006ES6_, symObjAddr: 0xC064, symBinAddr: 0x10000D574, symSize: 0x34 }
  - { offsetInCU: 0x1B1F1, offset: 0x1B1F1, size: 0x8, addend: 0x0, symName: __ZNSt3__128__exception_guard_exceptionsINS_6vectorI7clusterNS_9allocatorIS2_EEE16__destroy_vectorEEC2B7v160006ES6_, symObjAddr: 0xC098, symBinAddr: 0x10000D5A8, symSize: 0x24 }
  - { offsetInCU: 0x1B229, offset: 0x1B229, size: 0x8, addend: 0x0, symName: __ZNSt3__16vectorI7clusterNS_9allocatorIS1_EEE16__destroy_vectorC2ERS4_, symObjAddr: 0xC0BC, symBinAddr: 0x10000D5CC, symSize: 0x20 }
  - { offsetInCU: 0x1B262, offset: 0x1B262, size: 0x8, addend: 0x0, symName: __ZNKSt3__16vectorI7clusterNS_9allocatorIS1_EEE8max_sizeEv, symObjAddr: 0xC0DC, symBinAddr: 0x10000D5EC, symSize: 0x60 }
  - { offsetInCU: 0x1B28A, offset: 0x1B28A, size: 0x8, addend: 0x0, symName: __ZNKSt3__16vectorI7clusterNS_9allocatorIS1_EEE20__throw_length_errorB7v160006Ev, symObjAddr: 0xC13C, symBinAddr: 0x10000D64C, symSize: 0x1C }
  - { offsetInCU: 0x1B2B0, offset: 0x1B2B0, size: 0x8, addend: 0x0, symName: __ZNSt3__16vectorI7clusterNS_9allocatorIS1_EEE7__allocB7v160006Ev, symObjAddr: 0xC198, symBinAddr: 0x10000D6A8, symSize: 0x28 }
  - { offsetInCU: 0x1B2D6, offset: 0x1B2D6, size: 0x8, addend: 0x0, symName: __ZNSt3__16vectorI7clusterNS_9allocatorIS1_EEE9__end_capB7v160006Ev, symObjAddr: 0xC1C0, symBinAddr: 0x10000D6D0, symSize: 0x28 }
  - { offsetInCU: 0x1B2FC, offset: 0x1B2FC, size: 0x8, addend: 0x0, symName: __ZNKSt3__16vectorI7clusterNS_9allocatorIS1_EEE14__annotate_newB7v160006Em, symObjAddr: 0xC1E8, symBinAddr: 0x10000D6F8, symSize: 0xC8 }
  - { offsetInCU: 0x1B33B, offset: 0x1B33B, size: 0x8, addend: 0x0, symName: __ZNSt3__116allocator_traitsINS_9allocatorI7clusterEEE8max_sizeB7v160006IS3_vEEmRKS3_, symObjAddr: 0xC2B0, symBinAddr: 0x10000D7C0, symSize: 0x24 }
  - { offsetInCU: 0x1B369, offset: 0x1B369, size: 0x8, addend: 0x0, symName: __ZNKSt3__16vectorI7clusterNS_9allocatorIS1_EEE7__allocB7v160006Ev, symObjAddr: 0xC2D4, symBinAddr: 0x10000D7E4, symSize: 0x28 }
  - { offsetInCU: 0x1B38F, offset: 0x1B38F, size: 0x8, addend: 0x0, symName: __ZNKSt3__19allocatorI7clusterE8max_sizeB7v160006Ev, symObjAddr: 0xC2FC, symBinAddr: 0x10000D80C, symSize: 0x18 }
  - { offsetInCU: 0x1B3B5, offset: 0x1B3B5, size: 0x8, addend: 0x0, symName: __ZNKSt3__117__compressed_pairIP7clusterNS_9allocatorIS1_EEE6secondB7v160006Ev, symObjAddr: 0xC314, symBinAddr: 0x10000D824, symSize: 0x24 }
  - { offsetInCU: 0x1B3DB, offset: 0x1B3DB, size: 0x8, addend: 0x0, symName: __ZNKSt3__122__compressed_pair_elemINS_9allocatorI7clusterEELi1ELb1EE5__getB7v160006Ev, symObjAddr: 0xC338, symBinAddr: 0x10000D848, symSize: 0x14 }
  - { offsetInCU: 0x1B401, offset: 0x1B401, size: 0x8, addend: 0x0, symName: __ZNSt3__19allocatorI7clusterE8allocateB7v160006Em, symObjAddr: 0xC34C, symBinAddr: 0x10000D85C, symSize: 0x5C }
  - { offsetInCU: 0x1B435, offset: 0x1B435, size: 0x8, addend: 0x0, symName: __ZNSt3__117__compressed_pairIP7clusterNS_9allocatorIS1_EEE6secondB7v160006Ev, symObjAddr: 0xC3A8, symBinAddr: 0x10000D8B8, symSize: 0x24 }
  - { offsetInCU: 0x1B45B, offset: 0x1B45B, size: 0x8, addend: 0x0, symName: __ZNSt3__122__compressed_pair_elemINS_9allocatorI7clusterEELi1ELb1EE5__getB7v160006Ev, symObjAddr: 0xC3CC, symBinAddr: 0x10000D8DC, symSize: 0x14 }
  - { offsetInCU: 0x1B481, offset: 0x1B481, size: 0x8, addend: 0x0, symName: __ZNSt3__117__compressed_pairIP7clusterNS_9allocatorIS1_EEE5firstB7v160006Ev, symObjAddr: 0xC3E0, symBinAddr: 0x10000D8F0, symSize: 0x24 }
  - { offsetInCU: 0x1B4A7, offset: 0x1B4A7, size: 0x8, addend: 0x0, symName: __ZNSt3__122__compressed_pair_elemIP7clusterLi0ELb0EE5__getB7v160006Ev, symObjAddr: 0xC404, symBinAddr: 0x10000D914, symSize: 0x14 }
  - { offsetInCU: 0x1B4CD, offset: 0x1B4CD, size: 0x8, addend: 0x0, symName: __ZNKSt3__16vectorI7clusterNS_9allocatorIS1_EEE31__annotate_contiguous_containerB7v160006EPKvS6_S6_S6_, symObjAddr: 0xC418, symBinAddr: 0x10000D928, symSize: 0x20 }
  - { offsetInCU: 0x1B51F, offset: 0x1B51F, size: 0x8, addend: 0x0, symName: __ZNKSt3__16vectorI7clusterNS_9allocatorIS1_EEE4dataB7v160006Ev, symObjAddr: 0xC438, symBinAddr: 0x10000D948, symSize: 0x28 }
  - { offsetInCU: 0x1B545, offset: 0x1B545, size: 0x8, addend: 0x0, symName: __ZNKSt3__16vectorI7clusterNS_9allocatorIS1_EEE8capacityB7v160006Ev, symObjAddr: 0xC460, symBinAddr: 0x10000D970, symSize: 0x40 }
  - { offsetInCU: 0x1B56B, offset: 0x1B56B, size: 0x8, addend: 0x0, symName: __ZNKSt3__16vectorI7clusterNS_9allocatorIS1_EEE9__end_capB7v160006Ev, symObjAddr: 0xC4B4, symBinAddr: 0x10000D9C4, symSize: 0x28 }
  - { offsetInCU: 0x1B591, offset: 0x1B591, size: 0x8, addend: 0x0, symName: __ZNKSt3__117__compressed_pairIP7clusterNS_9allocatorIS1_EEE5firstB7v160006Ev, symObjAddr: 0xC4DC, symBinAddr: 0x10000D9EC, symSize: 0x24 }
  - { offsetInCU: 0x1B5B7, offset: 0x1B5B7, size: 0x8, addend: 0x0, symName: __ZNKSt3__122__compressed_pair_elemIP7clusterLi0ELb0EE5__getB7v160006Ev, symObjAddr: 0xC500, symBinAddr: 0x10000DA10, symSize: 0x14 }
  - { offsetInCU: 0x1B5F6, offset: 0x1B5F6, size: 0x8, addend: 0x0, symName: __ZNSt3__16vectorI7clusterNS_9allocatorIS1_EEE21_ConstructTransactionC1B7v160006ERS4_m, symObjAddr: 0xC514, symBinAddr: 0x10000DA24, symSize: 0x3C }
  - { offsetInCU: 0x1B63E, offset: 0x1B63E, size: 0x8, addend: 0x0, symName: __ZNSt3__116allocator_traitsINS_9allocatorI7clusterEEE9constructB7v160006IS2_JRKS2_EvEEvRS3_PT_DpOT0_, symObjAddr: 0xC550, symBinAddr: 0x10000DA60, symSize: 0x34 }
  - { offsetInCU: 0x1B695, offset: 0x1B695, size: 0x8, addend: 0x0, symName: __ZNSt3__16vectorI7clusterNS_9allocatorIS1_EEE21_ConstructTransactionD1B7v160006Ev, symObjAddr: 0xC584, symBinAddr: 0x10000DA94, symSize: 0x2C }
  - { offsetInCU: 0x1B6BF, offset: 0x1B6BF, size: 0x8, addend: 0x0, symName: __ZNSt3__16vectorI7clusterNS_9allocatorIS1_EEE21_ConstructTransactionC2B7v160006ERS4_m, symObjAddr: 0xC5B0, symBinAddr: 0x10000DAC0, symSize: 0x4C }
  - { offsetInCU: 0x1B707, offset: 0x1B707, size: 0x8, addend: 0x0, symName: __ZNSt3__19allocatorI7clusterE9constructB7v160006IS1_JRKS1_EEEvPT_DpOT0_, symObjAddr: 0xC5FC, symBinAddr: 0x10000DB0C, symSize: 0x30 }
  - { offsetInCU: 0x1B75D, offset: 0x1B75D, size: 0x8, addend: 0x0, symName: __ZN7clusterC1ERKS_, symObjAddr: 0xC62C, symBinAddr: 0x10000DB3C, symSize: 0x34 }
  - { offsetInCU: 0x1B792, offset: 0x1B792, size: 0x8, addend: 0x0, symName: __ZN7clusterC2ERKS_, symObjAddr: 0xC660, symBinAddr: 0x10000DB70, symSize: 0x34 }
  - { offsetInCU: 0x1B7C7, offset: 0x1B7C7, size: 0x8, addend: 0x0, symName: __ZNSt3__16vectorI7clusterNS_9allocatorIS1_EEE21_ConstructTransactionD2B7v160006Ev, symObjAddr: 0xC694, symBinAddr: 0x10000DBA4, symSize: 0x20 }
  - { offsetInCU: 0x1B7F1, offset: 0x1B7F1, size: 0x8, addend: 0x0, symName: __ZNSt3__128__exception_guard_exceptionsINS_6vectorI7clusterNS_9allocatorIS2_EEE16__destroy_vectorEED2B7v160006Ev, symObjAddr: 0xC6B4, symBinAddr: 0x10000DBC4, symSize: 0x50 }
  - { offsetInCU: 0x1B81B, offset: 0x1B81B, size: 0x8, addend: 0x0, symName: __ZNSt3__16vectorI7clusterNS_9allocatorIS1_EEE16__destroy_vectorclB7v160006Ev, symObjAddr: 0xC704, symBinAddr: 0x10000DC14, symSize: 0x9C }
  - { offsetInCU: 0x1B841, offset: 0x1B841, size: 0x8, addend: 0x0, symName: __ZNKSt3__16vectorI7clusterNS_9allocatorIS1_EEE17__annotate_deleteB7v160006Ev, symObjAddr: 0xC7A0, symBinAddr: 0x10000DCB0, symSize: 0xD4 }
  - { offsetInCU: 0x1B867, offset: 0x1B867, size: 0x8, addend: 0x0, symName: __ZNSt3__16vectorI7clusterNS_9allocatorIS1_EEE7__clearB7v160006Ev, symObjAddr: 0xC884, symBinAddr: 0x10000DD94, symSize: 0x28 }
  - { offsetInCU: 0x1B88D, offset: 0x1B88D, size: 0x8, addend: 0x0, symName: __ZNSt3__116allocator_traitsINS_9allocatorI7clusterEEE10deallocateB7v160006ERS3_PS2_m, symObjAddr: 0xC8AC, symBinAddr: 0x10000DDBC, symSize: 0x34 }
  - { offsetInCU: 0x1B8CF, offset: 0x1B8CF, size: 0x8, addend: 0x0, symName: __ZNSt3__16vectorI7clusterNS_9allocatorIS1_EEE22__base_destruct_at_endB7v160006EPS1_, symObjAddr: 0xC8E0, symBinAddr: 0x10000DDF0, symSize: 0x8C }
  - { offsetInCU: 0x1B913, offset: 0x1B913, size: 0x8, addend: 0x0, symName: __ZNSt3__116allocator_traitsINS_9allocatorI7clusterEEE7destroyB7v160006IS2_vEEvRS3_PT_, symObjAddr: 0xC96C, symBinAddr: 0x10000DE7C, symSize: 0x2C }
  - { offsetInCU: 0x1B950, offset: 0x1B950, size: 0x8, addend: 0x0, symName: __ZNSt3__19allocatorI7clusterE7destroyB7v160006EPS1_, symObjAddr: 0xC998, symBinAddr: 0x10000DEA8, symSize: 0x28 }
  - { offsetInCU: 0x1B984, offset: 0x1B984, size: 0x8, addend: 0x0, symName: __ZNSt3__19allocatorI7clusterE10deallocateB7v160006EPS1_m, symObjAddr: 0xC9C0, symBinAddr: 0x10000DED0, symSize: 0x44 }
  - { offsetInCU: 0x1B9C6, offset: 0x1B9C6, size: 0x8, addend: 0x0, symName: __ZNSt3__16vectorI7clusterNS_9allocatorIS1_EEED2B7v160006Ev, symObjAddr: 0xCA04, symBinAddr: 0x10000DF14, symSize: 0x44 }
  - { offsetInCU: 0x1B9F0, offset: 0x1B9F0, size: 0x8, addend: 0x0, symName: __ZNSt3__113basic_ostreamIcNS_11char_traitsIcEEEC2B7v160006EPNS_15basic_streambufIcS2_EE, symObjAddr: 0xCA48, symBinAddr: 0x10000DF58, symSize: 0x60 }
  - { offsetInCU: 0x1BA53, offset: 0x1BA53, size: 0x8, addend: 0x0, symName: __ZNKSt3__113basic_ostreamIcNS_11char_traitsIcEEE6sentrycvbB7v160006Ev, symObjAddr: 0xCC94, symBinAddr: 0x10000E1A4, symSize: 0x1C }
  - { offsetInCU: 0x1BA79, offset: 0x1BA79, size: 0x8, addend: 0x0, symName: __ZNSt3__119ostreambuf_iteratorIcNS_11char_traitsIcEEEC1B7v160006ERNS_13basic_ostreamIcS2_EE, symObjAddr: 0xCEF0, symBinAddr: 0x10000E400, symSize: 0x34 }
  - { offsetInCU: 0x1BAB1, offset: 0x1BAB1, size: 0x8, addend: 0x0, symName: __ZNKSt3__18ios_base5flagsB7v160006Ev, symObjAddr: 0xCF24, symBinAddr: 0x10000E434, symSize: 0x18 }
  - { offsetInCU: 0x1BAD9, offset: 0x1BAD9, size: 0x8, addend: 0x0, symName: __ZNKSt3__19basic_iosIcNS_11char_traitsIcEEE4fillB7v160006Ev, symObjAddr: 0xCF3C, symBinAddr: 0x10000E44C, symSize: 0x64 }
  - { offsetInCU: 0x1BB01, offset: 0x1BB01, size: 0x8, addend: 0x0, symName: __ZNKSt3__119ostreambuf_iteratorIcNS_11char_traitsIcEEE6failedB7v160006Ev, symObjAddr: 0xCFA0, symBinAddr: 0x10000E4B0, symSize: 0x24 }
  - { offsetInCU: 0x1BB27, offset: 0x1BB27, size: 0x8, addend: 0x0, symName: __ZNKSt3__18ios_base5widthB7v160006Ev, symObjAddr: 0xCFC4, symBinAddr: 0x10000E4D4, symSize: 0x18 }
  - { offsetInCU: 0x1BB4F, offset: 0x1BB4F, size: 0x8, addend: 0x0, symName: __ZNSt3__115basic_streambufIcNS_11char_traitsIcEEE5sputnB7v160006EPKcl, symObjAddr: 0xCFDC, symBinAddr: 0x10000E4EC, symSize: 0x3C }
  - { offsetInCU: 0x1BB91, offset: 0x1BB91, size: 0x8, addend: 0x0, symName: __ZNSt3__112basic_stringIcNS_11char_traitsIcEENS_9allocatorIcEEEC1B7v160006Emc, symObjAddr: 0xD018, symBinAddr: 0x10000E528, symSize: 0x3C }
  - { offsetInCU: 0x1BBD9, offset: 0x1BBD9, size: 0x8, addend: 0x0, symName: __ZNSt3__18ios_base5widthB7v160006El, symObjAddr: 0xD054, symBinAddr: 0x10000E564, symSize: 0x2C }
  - { offsetInCU: 0x1BC1F, offset: 0x1BC1F, size: 0x8, addend: 0x0, symName: __ZNSt3__112basic_stringIcNS_11char_traitsIcEENS_9allocatorIcEEEC2B7v160006Emc, symObjAddr: 0xD080, symBinAddr: 0x10000E590, symSize: 0x54 }
  - { offsetInCU: 0x1BC67, offset: 0x1BC67, size: 0x8, addend: 0x0, symName: __ZNSt3__119ostreambuf_iteratorIcNS_11char_traitsIcEEEC2B7v160006ERNS_13basic_ostreamIcS2_EE, symObjAddr: 0xD0D4, symBinAddr: 0x10000E5E4, symSize: 0x54 }
  - { offsetInCU: 0x1BC9F, offset: 0x1BC9F, size: 0x8, addend: 0x0, symName: __ZNSt3__16vectorIdNS_9allocatorIdEEE11__make_iterB7v160006EPd, symObjAddr: 0xD128, symBinAddr: 0x10000E638, symSize: 0x34 }
  - { offsetInCU: 0x1BCD4, offset: 0x1BCD4, size: 0x8, addend: 0x0, symName: __ZNSt3__111__wrap_iterIPdEC1B7v160006EPKvS1_, symObjAddr: 0xD15C, symBinAddr: 0x10000E66C, symSize: 0x3C }
  - { offsetInCU: 0x1BD1A, offset: 0x1BD1A, size: 0x8, addend: 0x0, symName: __ZNSt3__111__wrap_iterIPdEC2B7v160006EPKvS1_, symObjAddr: 0xD198, symBinAddr: 0x10000E6A8, symSize: 0x24 }
...
